ARM GAS  C:\Users\strag\AppData\Local\Temp\cc3UPhIa.s 			page 1


   1              		.syntax unified
   2              		.cpu cortex-m4
   3              		.eabi_attribute 27, 1
   4              		.eabi_attribute 28, 1
   5              		.fpu fpv4-sp-d16
   6              		.eabi_attribute 20, 1
   7              		.eabi_attribute 21, 1
   8              		.eabi_attribute 23, 3
   9              		.eabi_attribute 24, 1
  10              		.eabi_attribute 25, 1
  11              		.eabi_attribute 26, 1
  12              		.eabi_attribute 30, 1
  13              		.eabi_attribute 34, 1
  14              		.eabi_attribute 18, 4
  15              		.thumb
  16              		.syntax unified
  17              		.file	"DLT698.c"
  18              		.text
  19              	.Ltext0:
  20              		.cfi_sections	.debug_frame
  21              		.section	.text.dwDlt698MsLen,"ax",%progbits
  22              		.align	2
  23              		.thumb
  24              		.thumb_func
  26              	dwDlt698MsLen:
  27              	.LFB125:
  28              		.file 1 "../user/source/DLT698.c"
   1:../user/source/DLT698.c **** #include "Flash.h"
   2:../user/source/DLT698.c **** #include "DLT698.h"
   3:../user/source/DLT698.c **** #include "BaseDef.h"
   4:../user/source/DLT698.c **** #include "DLT645.h"
   5:../user/source/DLT698.c **** 
   6:../user/source/DLT698.c **** static int dwDlt698DataLen(UINT8 *ucRcvBuf, int dwRcvLen);
   7:../user/source/DLT698.c **** inline int dwDlt698Len(UINT8 *ucRcvBuf, int *LenBytes);
   8:../user/source/DLT698.c **** static int dwGetResponseNormal(UINT8 *pucBuf, COLL_STORE_DATA *pstCollStoreData);
   9:../user/source/DLT698.c **** static int dwGetResponseRecord(UINT8 *pucBuf, COLL_STORE_DATA *stCollData);
  10:../user/source/DLT698.c **** static int dwDlt698RSDLen(UINT8 *ucRcvBuf, int dwRcvLen);
  11:../user/source/DLT698.c **** static int dwDlt698MsLen(UINT8 *ucRcvBuf, int dwRcvLen);
  12:../user/source/DLT698.c **** 
  13:../user/source/DLT698.c **** /*
  14:../user/source/DLT698.c **** * FCS lookup table as calculated by the table generator.
  15:../user/source/DLT698.c **** */
  16:../user/source/DLT698.c **** const UINT16 fcstab[256] = {
  17:../user/source/DLT698.c ****     0x0000, 0x1189, 0x2312, 0x329b, 0x4624, 0x57ad, 0x6536, 0x74bf,
  18:../user/source/DLT698.c ****     0x8c48, 0x9dc1, 0xaf5a, 0xbed3, 0xca6c, 0xdbe5, 0xe97e, 0xf8f7,
  19:../user/source/DLT698.c ****     0x1081, 0x0108, 0x3393, 0x221a, 0x56a5, 0x472c, 0x75b7, 0x643e,
  20:../user/source/DLT698.c ****     0x9cc9, 0x8d40, 0xbfdb, 0xae52, 0xdaed, 0xcb64, 0xf9ff, 0xe876,
  21:../user/source/DLT698.c ****     0x2102, 0x308b, 0x0210, 0x1399, 0x6726, 0x76af, 0x4434, 0x55bd,
  22:../user/source/DLT698.c ****     0xad4a, 0xbcc3, 0x8e58, 0x9fd1, 0xeb6e, 0xfae7, 0xc87c, 0xd9f5,
  23:../user/source/DLT698.c ****     0x3183, 0x200a, 0x1291, 0x0318, 0x77a7, 0x662e, 0x54b5, 0x453c,
  24:../user/source/DLT698.c ****     0xbdcb, 0xac42, 0x9ed9, 0x8f50, 0xfbef, 0xea66, 0xd8fd, 0xc974,
  25:../user/source/DLT698.c ****     0x4204, 0x538d, 0x6116, 0x709f, 0x0420, 0x15a9, 0x2732, 0x36bb,
  26:../user/source/DLT698.c ****     0xce4c, 0xdfc5, 0xed5e, 0xfcd7, 0x8868, 0x99e1, 0xab7a, 0xbaf3,
  27:../user/source/DLT698.c ****     0x5285, 0x430c, 0x7197, 0x601e, 0x14a1, 0x0528, 0x37b3, 0x263a,
  28:../user/source/DLT698.c ****     0xdecd, 0xcf44, 0xfddf, 0xec56, 0x98e9, 0x8960, 0xbbfb, 0xaa72,
  29:../user/source/DLT698.c ****     0x6306, 0x728f, 0x4014, 0x519d, 0x2522, 0x34ab, 0x0630, 0x17b9,
  30:../user/source/DLT698.c ****     0xef4e, 0xfec7, 0xcc5c, 0xddd5, 0xa96a, 0xb8e3, 0x8a78, 0x9bf1,
ARM GAS  C:\Users\strag\AppData\Local\Temp\cc3UPhIa.s 			page 2


  31:../user/source/DLT698.c ****     0x7387, 0x620e, 0x5095, 0x411c, 0x35a3, 0x242a, 0x16b1, 0x0738,
  32:../user/source/DLT698.c ****     0xffcf, 0xee46, 0xdcdd, 0xcd54, 0xb9eb, 0xa862, 0x9af9, 0x8b70,
  33:../user/source/DLT698.c ****     0x8408, 0x9581, 0xa71a, 0xb693, 0xc22c, 0xd3a5, 0xe13e, 0xf0b7,
  34:../user/source/DLT698.c ****     0x0840, 0x19c9, 0x2b52, 0x3adb, 0x4e64, 0x5fed, 0x6d76, 0x7cff,
  35:../user/source/DLT698.c ****     0x9489, 0x8500, 0xb79b, 0xa612, 0xd2ad, 0xc324, 0xf1bf, 0xe036,
  36:../user/source/DLT698.c ****     0x18c1, 0x0948, 0x3bd3, 0x2a5a, 0x5ee5, 0x4f6c, 0x7df7, 0x6c7e,
  37:../user/source/DLT698.c ****     0xa50a, 0xb483, 0x8618, 0x9791, 0xe32e, 0xf2a7, 0xc03c, 0xd1b5,
  38:../user/source/DLT698.c ****     0x2942, 0x38cb, 0x0a50, 0x1bd9, 0x6f66, 0x7eef, 0x4c74, 0x5dfd,
  39:../user/source/DLT698.c ****     0xb58b, 0xa402, 0x9699, 0x8710, 0xf3af, 0xe226, 0xd0bd, 0xc134,
  40:../user/source/DLT698.c ****     0x39c3, 0x284a, 0x1ad1, 0x0b58, 0x7fe7, 0x6e6e, 0x5cf5, 0x4d7c,
  41:../user/source/DLT698.c ****     0xc60c, 0xd785, 0xe51e, 0xf497, 0x8028, 0x91a1, 0xa33a, 0xb2b3,
  42:../user/source/DLT698.c ****     0x4a44, 0x5bcd, 0x6956, 0x78df, 0x0c60, 0x1de9, 0x2f72, 0x3efb,
  43:../user/source/DLT698.c ****     0xd68d, 0xc704, 0xf59f, 0xe416, 0x90a9, 0x8120, 0xb3bb, 0xa232,
  44:../user/source/DLT698.c ****     0x5ac5, 0x4b4c, 0x79d7, 0x685e, 0x1ce1, 0x0d68, 0x3ff3, 0x2e7a,
  45:../user/source/DLT698.c ****     0xe70e, 0xf687, 0xc41c, 0xd595, 0xa12a, 0xb0a3, 0x8238, 0x93b1,
  46:../user/source/DLT698.c ****     0x6b46, 0x7acf, 0x4854, 0x59dd, 0x2d62, 0x3ceb, 0x0e70, 0x1ff9,
  47:../user/source/DLT698.c ****     0xf78f, 0xe606, 0xd49d, 0xc514, 0xb1ab, 0xa022, 0x92b9, 0x8330,
  48:../user/source/DLT698.c ****     0x7bc7, 0x6a4e, 0x58d5, 0x495c, 0x3de3, 0x2c6a, 0x1ef1, 0x0f78};
  49:../user/source/DLT698.c **** 
  50:../user/source/DLT698.c **** /*
  51:../user/source/DLT698.c **** * Calculate a new fcs given the current fcs and the new data.
  52:../user/source/DLT698.c **** */
  53:../user/source/DLT698.c **** //extern UINT16 pppfcs16(fcs, cp, len)
  54:../user/source/DLT698.c **** extern UINT16 pppfcs16(register UINT16 fcs, register unsigned char *cp, register int len)
  55:../user/source/DLT698.c **** {
  56:../user/source/DLT698.c ****     //register UINT16 fcs;
  57:../user/source/DLT698.c ****     //register unsigned char *cp;
  58:../user/source/DLT698.c ****     //register int len;
  59:../user/source/DLT698.c ****     assert(sizeof(UINT16) == 2);
  60:../user/source/DLT698.c ****     assert(((UINT16)-1) > 0);
  61:../user/source/DLT698.c ****     while (len--)
  62:../user/source/DLT698.c ****         fcs = (fcs >> 8) ^ fcstab[(fcs ^ *cp++) & 0xff];
  63:../user/source/DLT698.c ****     return (~fcs);
  64:../user/source/DLT698.c **** }
  65:../user/source/DLT698.c **** 
  66:../user/source/DLT698.c **** int dwReCalculateFCS(DLT698_FRAME *pframe)
  67:../user/source/DLT698.c **** {
  68:../user/source/DLT698.c ****     UINT16 uwframeLen;
  69:../user/source/DLT698.c ****     UINT32 nFCSPos;
  70:../user/source/DLT698.c ****     UINT16 uwfcs;
  71:../user/source/DLT698.c **** 
  72:../user/source/DLT698.c ****     uwframeLen = pframe->uwFramelen;
  73:../user/source/DLT698.c **** 
  74:../user/source/DLT698.c ****     nFCSPos = uwframeLen - 1;
  75:../user/source/DLT698.c ****     uwfcs = PPPINITFCS16;
  76:../user/source/DLT698.c ****     uwfcs = pppfcs16(uwfcs, pframe->pStart + 1, nFCSPos - 1);
  77:../user/source/DLT698.c **** 
  78:../user/source/DLT698.c ****     *(pframe->pStart + nFCSPos) = LSB(uwfcs);
  79:../user/source/DLT698.c ****     *(pframe->pStart + nFCSPos + 1) = MSB(uwfcs);
  80:../user/source/DLT698.c **** 
  81:../user/source/DLT698.c ****     return 1;
  82:../user/source/DLT698.c **** }
  83:../user/source/DLT698.c **** 
  84:../user/source/DLT698.c **** /**
  85:../user/source/DLT698.c ****   ************************************************************************
  86:../user/source/DLT698.c ****   * @brief    : unpack scurity APDU source code
  87:../user/source/DLT698.c ****   * @param    :
ARM GAS  C:\Users\strag\AppData\Local\Temp\cc3UPhIa.s 			page 3


  88:../user/source/DLT698.c ****   * @return   :
  89:../user/source/DLT698.c ****   * @author   :
  90:../user/source/DLT698.c ****   * @version  : 0.1
  91:../user/source/DLT698.c ****   * @date     : 2017-8-29 23:11:13
  92:../user/source/DLT698.c ****   * @modify   :
  93:../user/source/DLT698.c ****   * @see also :
  94:../user/source/DLT698.c ****   ************************************************************************
  95:../user/source/DLT698.c ****   * @attention
  96:../user/source/DLT698.c ****   ************************************************************************
  97:../user/source/DLT698.c ****   */
  98:../user/source/DLT698.c **** //int dwUnpackSecurity(UINT8 *ucSecurityBuf, int dwSourceLen, UINT8 **clearAPDU, COLLECT_CHANNEL eC
  99:../user/source/DLT698.c **** int dwUnpackSecurity(UINT8 *ucSecurityBuf, int dwSourceLen, UINT8 **clearAPDU)
 100:../user/source/DLT698.c **** {
 101:../user/source/DLT698.c ****     int Len = 0, Bytes = 0;
 102:../user/source/DLT698.c **** 
 103:../user/source/DLT698.c ****     assert(ucSecurityBuf);
 104:../user/source/DLT698.c **** 
 105:../user/source/DLT698.c ****     *clearAPDU = ucSecurityBuf;
 106:../user/source/DLT698.c **** 
 107:../user/source/DLT698.c ****     if (ucSecurityBuf[0] != SECURITY_Response)
 108:../user/source/DLT698.c ****     {
 109:../user/source/DLT698.c ****         return dwSourceLen;
 110:../user/source/DLT698.c ****     }
 111:../user/source/DLT698.c ****     else
 112:../user/source/DLT698.c ****     {
 113:../user/source/DLT698.c ****         switch (ucSecurityBuf[1])
 114:../user/source/DLT698.c ****         {
 115:../user/source/DLT698.c ****         /*应用数据单元安全类型：0明文，1密文*/
 116:../user/source/DLT698.c ****         case 0:
 117:../user/source/DLT698.c ****         {
 118:../user/source/DLT698.c ****             if ((Len = dwDlt698Len(&ucSecurityBuf[2], &Bytes)) < 0)
 119:../user/source/DLT698.c ****             {
 120:../user/source/DLT698.c ****                 return -1;
 121:../user/source/DLT698.c ****             }
 122:../user/source/DLT698.c ****             //else if (eChan < COLLECT_PLC) //只有485通道进行Mac验证
 123:../user/source/DLT698.c ****             //{
 124:../user/source/DLT698.c ****             //进行mac验证
 125:../user/source/DLT698.c ****             //if ((ucSecurityBuf[2 + Bytes + Len] == 1) &&
 126:../user/source/DLT698.c ****             //(ucSecurityBuf[2 + Bytes + Len + 1] == 0) &&
 127:../user/source/DLT698.c ****             //(ucSecurityBuf[2 + Bytes + Len + 2] == 4)) //mac长度4
 128:../user/source/DLT698.c ****             //{
 129:../user/source/DLT698.c ****             //if (ERROR == dwValidateMAC(&ucSecurityBuf[2 + Bytes + Len + 1 + 1 + 1], &ucSecurityBu
 130:../user/source/DLT698.c ****             //{
 131:../user/source/DLT698.c ****             //校验错误返回-2
 132:../user/source/DLT698.c ****             //return -2;
 133:../user/source/DLT698.c ****             //}
 134:../user/source/DLT698.c ****             //else
 135:../user/source/DLT698.c ****             //{
 136:../user/source/DLT698.c ****             *clearAPDU = ucSecurityBuf + 2 + Bytes;
 137:../user/source/DLT698.c ****             return Len;
 138:../user/source/DLT698.c ****             //}
 139:../user/source/DLT698.c ****             //}
 140:../user/source/DLT698.c ****             //else
 141:../user/source/DLT698.c ****             //{
 142:../user/source/DLT698.c ****             //return -2;
 143:../user/source/DLT698.c ****             //}
 144:../user/source/DLT698.c ****             //}
ARM GAS  C:\Users\strag\AppData\Local\Temp\cc3UPhIa.s 			page 4


 145:../user/source/DLT698.c **** //非485通道或不需验证
 146:../user/source/DLT698.c **** #if 0
 147:../user/source/DLT698.c ****             else
 148:../user/source/DLT698.c ****             {
 149:../user/source/DLT698.c ****                 *clearAPDU = ucSecurityBuf + 2 + Bytes;
 150:../user/source/DLT698.c ****                 return Len;
 151:../user/source/DLT698.c ****             }
 152:../user/source/DLT698.c **** #endif
 153:../user/source/DLT698.c ****         }
 154:../user/source/DLT698.c ****         break;
 155:../user/source/DLT698.c ****         default:
 156:../user/source/DLT698.c ****             break;
 157:../user/source/DLT698.c ****         }
 158:../user/source/DLT698.c ****     }
 159:../user/source/DLT698.c **** 
 160:../user/source/DLT698.c ****     return dwSourceLen;
 161:../user/source/DLT698.c **** }
 162:../user/source/DLT698.c **** 
 163:../user/source/DLT698.c **** int dwGet698Apdu(DLT698_FRAME *pframe, UINT8 **pAPDU)
 164:../user/source/DLT698.c **** {
 165:../user/source/DLT698.c ****     UINT16 dwLen;
 166:../user/source/DLT698.c **** #if 1
 167:../user/source/DLT698.c ****     /*security response len*/
 168:../user/source/DLT698.c ****     dwLen = pframe->uwFramelen - pframe->uwSA_len - 8;
 169:../user/source/DLT698.c ****     if ((dwLen = dwUnpackSecurity(pframe->pSecurityData, dwLen, pAPDU)) < 0)
 170:../user/source/DLT698.c ****     {
 171:../user/source/DLT698.c ****         return -1;
 172:../user/source/DLT698.c ****     }
 173:../user/source/DLT698.c **** #endif
 174:../user/source/DLT698.c ****     //*pAPDU = pframe->pStart + pframe->uwSA_len + 7;
 175:../user/source/DLT698.c **** 
 176:../user/source/DLT698.c ****     //return (pframe->uwFramelen - pframe->uwSA_len - 8);
 177:../user/source/DLT698.c ****     return dwLen;
 178:../user/source/DLT698.c **** }
 179:../user/source/DLT698.c **** /*
 180:../user/source/DLT698.c **** *********************************************************************
 181:../user/source/DLT698.c **** * 功    能：帧校验
 182:../user/source/DLT698.c **** * 输    入：
 183:../user/source/DLT698.c **** * 输    出：
 184:../user/source/DLT698.c **** * 作    者：ddy
 185:../user/source/DLT698.c **** * 编写日期：2017-05-24
 186:../user/source/DLT698.c **** * 修改日期: 
 187:../user/source/DLT698.c **** **********************************************************************
 188:../user/source/DLT698.c **** */
 189:../user/source/DLT698.c **** int dwGetApdu(UINT8 *pframe, UINT8 **pAPDU)
 190:../user/source/DLT698.c **** {
 191:../user/source/DLT698.c ****     UINT16 uwframeLen;
 192:../user/source/DLT698.c ****     UINT32 nHCSPos = 0;
 193:../user/source/DLT698.c ****     UINT32 nFCSPos;
 194:../user/source/DLT698.c ****     UINT16 uwhcs;
 195:../user/source/DLT698.c ****     UINT16 uwfcs;
 196:../user/source/DLT698.c ****     UINT16 SA_Len;
 197:../user/source/DLT698.c ****     int dwAPDULen = 0;
 198:../user/source/DLT698.c ****     //帧头首字符为: 0x68
 199:../user/source/DLT698.c ****     if (pframe[0] != 0x68)
 200:../user/source/DLT698.c ****     {
 201:../user/source/DLT698.c ****         return -1;
ARM GAS  C:\Users\strag\AppData\Local\Temp\cc3UPhIa.s 			page 5


 202:../user/source/DLT698.c ****     }
 203:../user/source/DLT698.c **** 
 204:../user/source/DLT698.c ****     //帧长占2byte，不含头尾
 205:../user/source/DLT698.c ****     uwframeLen = MAKE_WORD(pframe[2], pframe[1]);
 206:../user/source/DLT698.c ****     /*SA地址字节数，0代表1个字节*/
 207:../user/source/DLT698.c ****     SA_Len = (pframe[4] & 0x0F) + 2;
 208:../user/source/DLT698.c ****     nHCSPos += SA_Len + 5;
 209:../user/source/DLT698.c **** 
 210:../user/source/DLT698.c ****     //帧头校验hcs
 211:../user/source/DLT698.c ****     uwhcs = PPPINITFCS16;
 212:../user/source/DLT698.c ****     uwhcs = pppfcs16(uwhcs, pframe + 1, nHCSPos - 1);
 213:../user/source/DLT698.c **** 
 214:../user/source/DLT698.c ****     if (uwhcs != MAKE_WORD(pframe[nHCSPos + 1], pframe[nHCSPos]))
 215:../user/source/DLT698.c ****     {
 216:../user/source/DLT698.c ****         return -1;
 217:../user/source/DLT698.c ****     }
 218:../user/source/DLT698.c **** 
 219:../user/source/DLT698.c ****     //帧校验fcs
 220:../user/source/DLT698.c ****     nFCSPos = uwframeLen - 1;
 221:../user/source/DLT698.c ****     uwfcs = PPPINITFCS16;
 222:../user/source/DLT698.c ****     uwfcs = pppfcs16(uwfcs, pframe + 1, nFCSPos - 1);
 223:../user/source/DLT698.c ****     if (uwfcs != MAKE_WORD(pframe[nFCSPos + 1], pframe[nFCSPos]))
 224:../user/source/DLT698.c ****     {
 225:../user/source/DLT698.c ****         return -1;
 226:../user/source/DLT698.c ****     }
 227:../user/source/DLT698.c **** 
 228:../user/source/DLT698.c ****     dwAPDULen = uwframeLen - SA_Len - 8;
 229:../user/source/DLT698.c **** 
 230:../user/source/DLT698.c ****     //HardFault
 231:../user/source/DLT698.c ****     //memcpy(pAPDU, &pframe[nHCSPos + 2], dwAPDULen);
 232:../user/source/DLT698.c ****     *pAPDU = &pframe[nHCSPos + 2];
 233:../user/source/DLT698.c ****     return dwAPDULen;
 234:../user/source/DLT698.c **** }
 235:../user/source/DLT698.c **** 
 236:../user/source/DLT698.c **** int dwAPduAnalyze(UINT8 *pucBuf, UINT32 dwlen, COLL_STORE_DATA *pstCollStoreData)
 237:../user/source/DLT698.c **** {
 238:../user/source/DLT698.c ****     //int Len = 0, Bytes = 0;
 239:../user/source/DLT698.c ****     int Ret = -1;
 240:../user/source/DLT698.c ****     COLL_STORE_DATA *pstCollData = pstCollStoreData;
 241:../user/source/DLT698.c **** 
 242:../user/source/DLT698.c ****     if (GET_Response == pucBuf[0])
 243:../user/source/DLT698.c ****     {
 244:../user/source/DLT698.c ****         switch (pucBuf[1])
 245:../user/source/DLT698.c ****         {
 246:../user/source/DLT698.c ****         case GetResponseNormal:
 247:../user/source/DLT698.c ****         case GetResponseNormalList:
 248:../user/source/DLT698.c ****         {
 249:../user/source/DLT698.c ****             Ret = dwGetResponseNormal(pucBuf, pstCollData);
 250:../user/source/DLT698.c ****         }
 251:../user/source/DLT698.c ****         break;
 252:../user/source/DLT698.c ****         case GetResponseRecord:
 253:../user/source/DLT698.c ****         case GetResponseRecordList:
 254:../user/source/DLT698.c ****         {
 255:../user/source/DLT698.c ****             Ret = dwGetResponseRecord(pucBuf, pstCollData);
 256:../user/source/DLT698.c ****         }
 257:../user/source/DLT698.c ****         break;
 258:../user/source/DLT698.c ****         case GetResponseNext:
ARM GAS  C:\Users\strag\AppData\Local\Temp\cc3UPhIa.s 			page 6


 259:../user/source/DLT698.c ****         {
 260:../user/source/DLT698.c ****             //	Ret = blGetResponseNext(pstChanTaskMsg, &pApduBuf[nPos], ucGetResponse);
 261:../user/source/DLT698.c ****         }
 262:../user/source/DLT698.c ****         break;
 263:../user/source/DLT698.c ****         default:
 264:../user/source/DLT698.c ****             break;
 265:../user/source/DLT698.c ****         }
 266:../user/source/DLT698.c ****     }
 267:../user/source/DLT698.c ****     else if (SECURITY_Response == pucBuf[0])
 268:../user/source/DLT698.c ****     {
 269:../user/source/DLT698.c ****         return -1;
 270:../user/source/DLT698.c ****     }
 271:../user/source/DLT698.c **** 
 272:../user/source/DLT698.c ****     return Ret;
 273:../user/source/DLT698.c **** }
 274:../user/source/DLT698.c **** 
 275:../user/source/DLT698.c **** /**
 276:../user/source/DLT698.c ****  * @note: dlt698 data length area
 277:../user/source/DLT698.c ****  * @author: 
 278:../user/source/DLT698.c ****  * @date: 2017-7-21 15:05:44
 279:../user/source/DLT698.c ****  *-----------------------------------------------------------------
 280:../user/source/DLT698.c ****  */
 281:../user/source/DLT698.c **** inline int dwDlt698Len(UINT8 *ucRcvBuf, int *LenBytes)
 282:../user/source/DLT698.c **** {
 283:../user/source/DLT698.c ****     int Bytes;
 284:../user/source/DLT698.c **** 
 285:../user/source/DLT698.c ****     assert(ucRcvBuf);
 286:../user/source/DLT698.c **** 
 287:../user/source/DLT698.c ****     if (0x00 == (ucRcvBuf[0] & 0x80))
 288:../user/source/DLT698.c ****     {
 289:../user/source/DLT698.c ****         *LenBytes = 1;
 290:../user/source/DLT698.c ****         return ucRcvBuf[0];
 291:../user/source/DLT698.c ****     }
 292:../user/source/DLT698.c **** 
 293:../user/source/DLT698.c ****     Bytes = ucRcvBuf[0] & 0x7F;
 294:../user/source/DLT698.c **** 
 295:../user/source/DLT698.c ****     if (Bytes == 1)
 296:../user/source/DLT698.c ****     {
 297:../user/source/DLT698.c ****         *LenBytes = 2;
 298:../user/source/DLT698.c ****         return (ucRcvBuf[1]);
 299:../user/source/DLT698.c ****     }
 300:../user/source/DLT698.c ****     else if (Bytes == 2)
 301:../user/source/DLT698.c ****     {
 302:../user/source/DLT698.c ****         *LenBytes = 3;
 303:../user/source/DLT698.c ****         return ((ucRcvBuf[1] << 8) | (ucRcvBuf[2]));
 304:../user/source/DLT698.c ****     }
 305:../user/source/DLT698.c ****     else if (Bytes == 3)
 306:../user/source/DLT698.c ****     {
 307:../user/source/DLT698.c ****         *LenBytes = 4;
 308:../user/source/DLT698.c ****         return ((ucRcvBuf[1] << 16) |
 309:../user/source/DLT698.c ****                 (ucRcvBuf[2] << 8) & (ucRcvBuf[3]));
 310:../user/source/DLT698.c ****     }
 311:../user/source/DLT698.c ****     else if (Bytes == 4)
 312:../user/source/DLT698.c ****     {
 313:../user/source/DLT698.c ****         *LenBytes = 5;
 314:../user/source/DLT698.c ****         return ((ucRcvBuf[1] << 24) |
 315:../user/source/DLT698.c ****                 (ucRcvBuf[2] << 16) & (ucRcvBuf[3] << 8) & (ucRcvBuf[4]));
ARM GAS  C:\Users\strag\AppData\Local\Temp\cc3UPhIa.s 			page 7


 316:../user/source/DLT698.c ****     }
 317:../user/source/DLT698.c **** 
 318:../user/source/DLT698.c ****     return -1;
 319:../user/source/DLT698.c **** }
 320:../user/source/DLT698.c **** 
 321:../user/source/DLT698.c **** int dwDlt698DataLenByOAD(OAD stOAD, UINT8 *pucBuf)
 322:../user/source/DLT698.c **** {
 323:../user/source/DLT698.c ****     //UINT8 i;
 324:../user/source/DLT698.c ****     //int dwGetResult;
 325:../user/source/DLT698.c ****     //INT32 dwRetLen = 0;
 326:../user/source/DLT698.c ****     //UINT8 ucDataType = 0;
 327:../user/source/DLT698.c ****     //int nRetDataLen = 0;
 328:../user/source/DLT698.c ****     //UINT8 ucArrayCount = 0;
 329:../user/source/DLT698.c ****     UINT8 byOI1 = stOAD.OI_date >> 8;
 330:../user/source/DLT698.c ****     //UINT8 byOI2 = stOAD.OI_date;
 331:../user/source/DLT698.c ****     //UINT8 ucFeature = stOAD.attr_ID;
 332:../user/source/DLT698.c ****     //UINT8 ucIndex = stOAD.attr_index;
 333:../user/source/DLT698.c **** 
 334:../user/source/DLT698.c ****     if ((byOI1 >> 4) == 0)
 335:../user/source/DLT698.c ****         byOI1 = byOI1 & 0xF0;
 336:../user/source/DLT698.c ****     return dwDlt698DataLen(pucBuf, 256);
 337:../user/source/DLT698.c **** }
 338:../user/source/DLT698.c **** 
 339:../user/source/DLT698.c **** int dwGetOad(UINT8 *pucStr, OAD *pstOad)
 340:../user/source/DLT698.c **** {
 341:../user/source/DLT698.c ****     pstOad->OI_date = MAKE_WORD(*pucStr, *(pucStr + 1));
 342:../user/source/DLT698.c ****     pucStr += 2;
 343:../user/source/DLT698.c **** 
 344:../user/source/DLT698.c ****     pstOad->attr_ID = *pucStr;
 345:../user/source/DLT698.c ****     pucStr++;
 346:../user/source/DLT698.c ****     pstOad->attr_index = *pucStr;
 347:../user/source/DLT698.c ****     pucStr++;
 348:../user/source/DLT698.c **** 
 349:../user/source/DLT698.c ****     return 4;
 350:../user/source/DLT698.c **** }
 351:../user/source/DLT698.c **** 
 352:../user/source/DLT698.c **** DATA_CLASS eDataClass(OAD stMainOad)
 353:../user/source/DLT698.c **** {
 354:../user/source/DLT698.c ****     if (stMainOad.OI_date == OI_INSTANTFRZ ||
 355:../user/source/DLT698.c ****         stMainOad.OI_date == OI_SECFRZ ||
 356:../user/source/DLT698.c ****         stMainOad.OI_date == OI_MINUTEFRZ ||
 357:../user/source/DLT698.c ****         stMainOad.OI_date == OI_HOURFRZ)
 358:../user/source/DLT698.c ****     {
 359:../user/source/DLT698.c ****         return D_CLASS_CUR_FREEZE;
 360:../user/source/DLT698.c ****     }
 361:../user/source/DLT698.c ****     else if (stMainOad.OI_date == OI_DAY_FRZ)
 362:../user/source/DLT698.c ****     {
 363:../user/source/DLT698.c ****         return D_CLASS_DAY_FREEZE;
 364:../user/source/DLT698.c ****     }
 365:../user/source/DLT698.c ****     else if (stMainOad.OI_date == OI_MONTHFRZ)
 366:../user/source/DLT698.c ****     {
 367:../user/source/DLT698.c ****         return D_CLASS_MON_FREEZE;
 368:../user/source/DLT698.c ****     }
 369:../user/source/DLT698.c ****     else if (stMainOad.OI_date >= 0x3000 &&
 370:../user/source/DLT698.c ****              stMainOad.OI_date < 0x3300)
 371:../user/source/DLT698.c ****     {
 372:../user/source/DLT698.c ****         return D_CLASS_EVENT;
ARM GAS  C:\Users\strag\AppData\Local\Temp\cc3UPhIa.s 			page 8


 373:../user/source/DLT698.c ****     }
 374:../user/source/DLT698.c **** 
 375:../user/source/DLT698.c ****     return D_CLASS_NULL;
 376:../user/source/DLT698.c **** }
 377:../user/source/DLT698.c **** 
 378:../user/source/DLT698.c **** int dwGetResponseNormal(UINT8 *pucBuf, COLL_STORE_DATA *pstCollStoreData) //, COLLECT_UNIT_ID stID)
 379:../user/source/DLT698.c **** {
 380:../user/source/DLT698.c ****     UINT8 i;
 381:../user/source/DLT698.c ****     UINT8 ucResultNum;
 382:../user/source/DLT698.c ****     int dwLen;
 383:../user/source/DLT698.c ****     //BOOL Ret = true;
 384:../user/source/DLT698.c ****     COLL_STORE_DATA *pstCollData = pstCollStoreData;
 385:../user/source/DLT698.c ****     UINT8 *Ptr = pucBuf;
 386:../user/source/DLT698.c ****     OAD stOADtmp;
 387:../user/source/DLT698.c ****     //extern BOOL blFollowReportSWord;
 388:../user/source/DLT698.c ****     //extern UINT8 ucFollowReportSWord[4];
 389:../user/source/DLT698.c ****     //UINT8 ucNum;
 390:../user/source/DLT698.c **** 
 391:../user/source/DLT698.c ****     Ptr++; // Get Request
 392:../user/source/DLT698.c **** 
 393:../user/source/DLT698.c ****     switch (*Ptr++)
 394:../user/source/DLT698.c ****     {
 395:../user/source/DLT698.c ****     case GetResponseNormal:
 396:../user/source/DLT698.c ****     {
 397:../user/source/DLT698.c ****         Ptr++;
 398:../user/source/DLT698.c ****         ucResultNum = 1;
 399:../user/source/DLT698.c ****     }
 400:../user/source/DLT698.c ****     break;
 401:../user/source/DLT698.c ****     case GetResponseNormalList:
 402:../user/source/DLT698.c ****     {
 403:../user/source/DLT698.c ****         //SEQUENCE OF ResultNormal
 404:../user/source/DLT698.c ****         Ptr++;
 405:../user/source/DLT698.c ****         if ((ucResultNum = *Ptr++) > 127)
 406:../user/source/DLT698.c ****         {
 407:../user/source/DLT698.c ****             return -1;
 408:../user/source/DLT698.c ****         }
 409:../user/source/DLT698.c ****     }
 410:../user/source/DLT698.c ****     break;
 411:../user/source/DLT698.c ****     default:
 412:../user/source/DLT698.c ****         return -1;
 413:../user/source/DLT698.c ****     }
 414:../user/source/DLT698.c **** 
 415:../user/source/DLT698.c ****     bzero(pstCollData, sizeof(COLL_STORE_DATA));
 416:../user/source/DLT698.c **** 
 417:../user/source/DLT698.c ****     //stCollData.uwConfigNo = uwConfigNo;
 418:../user/source/DLT698.c ****     pstCollData->eDataCls = D_CLASS_REAL;
 419:../user/source/DLT698.c **** 
 420:../user/source/DLT698.c ****     for (i = 0; i < ucResultNum; i++)
 421:../user/source/DLT698.c ****     {
 422:../user/source/DLT698.c ****         //Ptr += dwGetOad(Ptr, &pstCollData->stDataUnit[i].stOAD);
 423:../user/source/DLT698.c ****         Ptr += dwGetOad(Ptr, &stOADtmp);
 424:../user/source/DLT698.c **** 
 425:../user/source/DLT698.c ****         if (ERROR_INFO == *Ptr)
 426:../user/source/DLT698.c ****         {
 427:../user/source/DLT698.c ****             Ptr++; // Choice
 428:../user/source/DLT698.c ****             Ptr++; // DAR
 429:../user/source/DLT698.c ****         }
ARM GAS  C:\Users\strag\AppData\Local\Temp\cc3UPhIa.s 			page 9


 430:../user/source/DLT698.c ****         else if (RES_DATA == *Ptr)
 431:../user/source/DLT698.c ****         {
 432:../user/source/DLT698.c ****             Ptr++; // Choice
 433:../user/source/DLT698.c ****             //if ((dwLen = dwDlt698DataLenByOAD(pstCollData->stDataUnit[i].stOAD, Ptr)) < 0)
 434:../user/source/DLT698.c ****             if ((dwLen = dwDlt698DataLenByOAD(stOADtmp, Ptr)) < 0)
 435:../user/source/DLT698.c ****             {
 436:../user/source/DLT698.c ****                 return -1;
 437:../user/source/DLT698.c ****             }
 438:../user/source/DLT698.c **** #if 1
 439:../user/source/DLT698.c ****             if (stOADtmp.OI_date == OI_VOLTAGE)
 440:../user/source/DLT698.c ****             {
 441:../user/source/DLT698.c ****                 pstCollData->stDataUnit[pstCollData->ucDataNum].stOAD.OI_date = OI_VOLTAGE;
 442:../user/source/DLT698.c ****                 pstCollData->stDataUnit[pstCollData->ucDataNum].stOAD.attr_ID = stOADtmp.attr_ID;
 443:../user/source/DLT698.c ****                 pstCollData->stDataUnit[pstCollData->ucDataNum].stOAD.attr_index = stOADtmp.attr_in
 444:../user/source/DLT698.c **** 
 445:../user/source/DLT698.c ****                 pstCollData->stDataUnit[pstCollData->ucDataNum].uwLen = dwLen;
 446:../user/source/DLT698.c ****                 pstCollData->stDataUnit[pstCollData->ucDataNum].ucPtr = Ptr;
 447:../user/source/DLT698.c ****                 pstCollData->stDataUnit[pstCollData->ucDataNum].ucVal = 1;
 448:../user/source/DLT698.c ****                 pstCollData->ucDataNum++;
 449:../user/source/DLT698.c ****             }
 450:../user/source/DLT698.c **** #endif
 451:../user/source/DLT698.c ****             //pstCollData->stDataUnit[i].uwLen = dwLen;
 452:../user/source/DLT698.c ****             //pstCollData->stDataUnit[i].ucPtr = Ptr;
 453:../user/source/DLT698.c ****             //pstCollData->stDataUnit[i].ucVal = 1;
 454:../user/source/DLT698.c ****             //pstCollData->ucDataNum++;
 455:../user/source/DLT698.c **** 
 456:../user/source/DLT698.c ****             Ptr += dwLen;
 457:../user/source/DLT698.c ****         }
 458:../user/source/DLT698.c ****         else
 459:../user/source/DLT698.c ****         {
 460:../user/source/DLT698.c ****             return -1;
 461:../user/source/DLT698.c ****         }
 462:../user/source/DLT698.c ****     }
 463:../user/source/DLT698.c **** 
 464:../user/source/DLT698.c **** /*********跟随上报标志********/
 465:../user/source/DLT698.c **** #if 0 //stragen
 466:../user/source/DLT698.c ****     if (1 == *Ptr++) //跟随上报标志
 467:../user/source/DLT698.c ****     {
 468:../user/source/DLT698.c ****         //若干个对象属性及其数据  [1]  SEQUENCE OF A-ResultNormal
 469:../user/source/DLT698.c ****         if (1 == *Ptr++)
 470:../user/source/DLT698.c ****         {
 471:../user/source/DLT698.c ****             ucNum = *Ptr++; // 个数SEQUENCE OF A-ResultNormal
 472:../user/source/DLT698.c **** 
 473:../user/source/DLT698.c ****             for (i = 0; i < ucNum; i++)
 474:../user/source/DLT698.c ****             {
 475:../user/source/DLT698.c ****                 Ptr += dwGetOad(Ptr, &stOAD);
 476:../user/source/DLT698.c ****                 if ((0x3320 == stOAD.OI_date) && (0x02 == stOAD.attr_ID) && (0x01 == stOAD.attr_ind
 477:../user/source/DLT698.c ****                 {
 478:../user/source/DLT698.c ****                     if (1 == *Ptr++) //结果类型
 479:../user/source/DLT698.c ****                     {
 480:../user/source/DLT698.c ****                         if (DL_OAD == *Ptr++)
 481:../user/source/DLT698.c ****                         {
 482:../user/source/DLT698.c ****                             stFollowRptInfo[uwConfigNo - 1].ucFollowRptFlag = 1;
 483:../user/source/DLT698.c ****                             stFollowRptInfo[uwConfigNo - 1].stFollowRptEventOAD.OI_date = MAKE_WORD
 484:../user/source/DLT698.c ****                             Ptr += 2;
 485:../user/source/DLT698.c ****                             stFollowRptInfo[uwConfigNo - 1].stFollowRptEventOAD.attr_ID = *Ptr++;
 486:../user/source/DLT698.c ****                             stFollowRptInfo[uwConfigNo - 1].stFollowRptEventOAD.attr_index = *Ptr++
ARM GAS  C:\Users\strag\AppData\Local\Temp\cc3UPhIa.s 			page 10


 487:../user/source/DLT698.c ****                         }
 488:../user/source/DLT698.c ****                     }
 489:../user/source/DLT698.c ****                 }
 490:../user/source/DLT698.c ****                 else if (0x2015 == stOAD.OI_date)
 491:../user/source/DLT698.c ****                 {
 492:../user/source/DLT698.c ****                     if (1 == *Ptr++)
 493:../user/source/DLT698.c ****                     {
 494:../user/source/DLT698.c ****                         if (*Ptr++ != DL_BIT_STR)
 495:../user/source/DLT698.c ****                         {
 496:../user/source/DLT698.c ****                             continue;
 497:../user/source/DLT698.c ****                         }
 498:../user/source/DLT698.c ****                         if (*Ptr++ != 32)
 499:../user/source/DLT698.c ****                         {
 500:../user/source/DLT698.c ****                             continue;
 501:../user/source/DLT698.c ****                         }
 502:../user/source/DLT698.c ****                         blFollowReportSWord = TRUE;
 503:../user/source/DLT698.c ****                         memcpy(ucFollowReportSWord, Ptr, 0x04);
 504:../user/source/DLT698.c ****                         Ptr += 4;
 505:../user/source/DLT698.c ****                     }
 506:../user/source/DLT698.c ****                 }
 507:../user/source/DLT698.c ****             }
 508:../user/source/DLT698.c ****         }
 509:../user/source/DLT698.c ****     }
 510:../user/source/DLT698.c **** #endif
 511:../user/source/DLT698.c **** 
 512:../user/source/DLT698.c ****     //blMeterDataChange(stID.ucTaskID, &stCollData);
 513:../user/source/DLT698.c **** 
 514:../user/source/DLT698.c ****     //if (OK != dwDealDataStore(&stCollData, stID))
 515:../user/source/DLT698.c ****     //{
 516:../user/source/DLT698.c ****     //return -1;
 517:../user/source/DLT698.c ****     //}
 518:../user/source/DLT698.c ****     /*数据解析函数，待移植*/
 519:../user/source/DLT698.c ****     //dwDataRowInsertItem(rowArray[i], pstCollData->stDataUnit[k].stOAD, pstCollData->stDataUnit[k]
 520:../user/source/DLT698.c ****     return 1;
 521:../user/source/DLT698.c **** }
 522:../user/source/DLT698.c **** /*
 523:../user/source/DLT698.c **** *********************************************************************
 524:../user/source/DLT698.c **** *GetResponseRecord 
 525:../user/source/DLT698.c **** **********************************************************************
 526:../user/source/DLT698.c **** */
 527:../user/source/DLT698.c **** //int dwGetResponseRecord(UINT16 uwConfigNo, UINT8 *pucBuf, COLLECT_UNIT_ID stID)
 528:../user/source/DLT698.c **** int dwGetResponseRecord(UINT8 *pucBuf, COLL_STORE_DATA *stCollData)
 529:../user/source/DLT698.c **** {
 530:../user/source/DLT698.c ****     UINT8 i, j, k;
 531:../user/source/DLT698.c ****     UINT8 ucNum;
 532:../user/source/DLT698.c ****     UINT8 ucCSDNum;
 533:../user/source/DLT698.c ****     UINT8 ucResultNum;
 534:../user/source/DLT698.c ****     int dwLen;
 535:../user/source/DLT698.c ****     //struct tm stTime;
 536:../user/source/DLT698.c ****     UINT8 *Ptr = pucBuf;
 537:../user/source/DLT698.c **** 
 538:../user/source/DLT698.c ****     //struct tm tmNow;
 539:../user/source/DLT698.c ****     //time_t timeNow;
 540:../user/source/DLT698.c ****     //OAD stOAD;
 541:../user/source/DLT698.c **** 
 542:../user/source/DLT698.c ****     //extern BOOL blFollowReportSWord;
 543:../user/source/DLT698.c ****     //extern UINT8 ucFollowReportSWord[4];
ARM GAS  C:\Users\strag\AppData\Local\Temp\cc3UPhIa.s 			page 11


 544:../user/source/DLT698.c **** 
 545:../user/source/DLT698.c ****     Ptr++;
 546:../user/source/DLT698.c ****     switch (*Ptr++)
 547:../user/source/DLT698.c ****     {
 548:../user/source/DLT698.c ****     case GetResponseRecord:
 549:../user/source/DLT698.c ****     {
 550:../user/source/DLT698.c ****         Ptr++;
 551:../user/source/DLT698.c ****         ucResultNum = 1;
 552:../user/source/DLT698.c ****     }
 553:../user/source/DLT698.c ****     break;
 554:../user/source/DLT698.c ****     case GetResponseRecordList:
 555:../user/source/DLT698.c ****     {
 556:../user/source/DLT698.c ****         //SEQUENCE OF A-ResultRecord
 557:../user/source/DLT698.c ****         Ptr++;
 558:../user/source/DLT698.c ****         if ((ucResultNum = *pucBuf++) > 127)
 559:../user/source/DLT698.c ****         {
 560:../user/source/DLT698.c ****             return -1;
 561:../user/source/DLT698.c ****         }
 562:../user/source/DLT698.c ****     }
 563:../user/source/DLT698.c ****     break;
 564:../user/source/DLT698.c ****     default:
 565:../user/source/DLT698.c ****         return -1;
 566:../user/source/DLT698.c ****     }
 567:../user/source/DLT698.c **** 
 568:../user/source/DLT698.c ****     bzero(stCollData, sizeof(COLL_STORE_DATA));
 569:../user/source/DLT698.c ****     //stCollData.uwConfigNo = uwConfigNo;
 570:../user/source/DLT698.c **** 
 571:../user/source/DLT698.c ****     for (i = 0; i < ucResultNum; i++)
 572:../user/source/DLT698.c ****     {
 573:../user/source/DLT698.c ****         Ptr += dwGetOad(Ptr, &stCollData->stMainOAD);
 574:../user/source/DLT698.c **** #if 0
 575:../user/source/DLT698.c ****         stCollData->stMainOAD.OI_date = MAKE_WORD(*Ptr, *(Ptr + 1));
 576:../user/source/DLT698.c ****         Ptr += 2;
 577:../user/source/DLT698.c ****         stCollData->stMainOAD.attr_ID = *Ptr++;
 578:../user/source/DLT698.c ****         stCollData->stMainOAD.attr_index = *Ptr++;
 579:../user/source/DLT698.c ****         Ptr += 4;
 580:../user/source/DLT698.c **** #endif
 581:../user/source/DLT698.c **** 
 582:../user/source/DLT698.c ****         stCollData->eDataCls = eDataClass(stCollData->stMainOAD);
 583:../user/source/DLT698.c ****         if (stCollData->eDataCls == D_CLASS_NULL)
 584:../user/source/DLT698.c ****         {
 585:../user/source/DLT698.c ****             return -1;
 586:../user/source/DLT698.c ****         }
 587:../user/source/DLT698.c **** 
 588:../user/source/DLT698.c ****         //SEQUENCE OF CSD
 589:../user/source/DLT698.c ****         if ((ucCSDNum = *Ptr++) > 127)
 590:../user/source/DLT698.c ****         {
 591:../user/source/DLT698.c ****             return -1;
 592:../user/source/DLT698.c ****         }
 593:../user/source/DLT698.c **** 
 594:../user/source/DLT698.c ****         for (j = 0; j < ucCSDNum; j++)
 595:../user/source/DLT698.c ****         {
 596:../user/source/DLT698.c ****             //OAD
 597:../user/source/DLT698.c ****             if (*Ptr == 0)
 598:../user/source/DLT698.c ****             {
 599:../user/source/DLT698.c ****                 Ptr++;
 600:../user/source/DLT698.c ****                 Ptr += dwGetOad(Ptr, &stCollData->stDataUnit[j].stOAD);
ARM GAS  C:\Users\strag\AppData\Local\Temp\cc3UPhIa.s 			page 12


 601:../user/source/DLT698.c ****             }
 602:../user/source/DLT698.c ****             //ROAD 暂不考虑
 603:../user/source/DLT698.c ****             else
 604:../user/source/DLT698.c ****             {
 605:../user/source/DLT698.c ****                 return -1;
 606:../user/source/DLT698.c ****             }
 607:../user/source/DLT698.c ****         }
 608:../user/source/DLT698.c **** 
 609:../user/source/DLT698.c ****         //记录数据或者错误信息
 610:../user/source/DLT698.c ****         if (ERROR_INFO == *Ptr) //错误信息
 611:../user/source/DLT698.c ****         {
 612:../user/source/DLT698.c ****             Ptr++; // Choice
 613:../user/source/DLT698.c ****             Ptr++; // DAR
 614:../user/source/DLT698.c ****         }
 615:../user/source/DLT698.c ****         else if (RES_DATA == *Ptr) //记录数据
 616:../user/source/DLT698.c ****         {
 617:../user/source/DLT698.c ****             Ptr++; // Choice
 618:../user/source/DLT698.c ****             if ((ucNum = *Ptr++) > 127)
 619:../user/source/DLT698.c ****             {
 620:../user/source/DLT698.c ****                 return -1;
 621:../user/source/DLT698.c ****             }
 622:../user/source/DLT698.c **** 
 623:../user/source/DLT698.c ****             if (ucNum == 0)
 624:../user/source/DLT698.c ****             {
 625:../user/source/DLT698.c ****                 return 0;
 626:../user/source/DLT698.c ****             }
 627:../user/source/DLT698.c **** 
 628:../user/source/DLT698.c ****             for (j = 0; j < ucNum; j++)
 629:../user/source/DLT698.c ****             {
 630:../user/source/DLT698.c ****                 stCollData->ucDataNum = 0;
 631:../user/source/DLT698.c ****                 for (k = 0; k < ucCSDNum; k++)
 632:../user/source/DLT698.c ****                 {
 633:../user/source/DLT698.c ****                     if ((dwLen = dwDlt698DataLenByOAD(stCollData->stDataUnit[k].stOAD, Ptr)) < 0)
 634:../user/source/DLT698.c ****                     {
 635:../user/source/DLT698.c ****                         return -1;
 636:../user/source/DLT698.c ****                     }
 637:../user/source/DLT698.c **** 
 638:../user/source/DLT698.c ****                     stCollData->stDataUnit[k].uwLen = dwLen;
 639:../user/source/DLT698.c ****                     stCollData->stDataUnit[k].ucPtr = Ptr;
 640:../user/source/DLT698.c ****                     stCollData->stDataUnit[k].ucVal = 1;
 641:../user/source/DLT698.c ****                     stCollData->ucDataNum++;
 642:../user/source/DLT698.c **** 
 643:../user/source/DLT698.c ****                     Ptr += dwLen;
 644:../user/source/DLT698.c **** 
 645:../user/source/DLT698.c **** #if 0
 646:../user/source/DLT698.c ****                     switch (stCollData.stDataUnit[k].stOAD.OI_date)
 647:../user/source/DLT698.c ****                     {
 648:../user/source/DLT698.c ****                     case OI_DATA_FRZ_TIME:
 649:../user/source/DLT698.c ****                     {
 650:../user/source/DLT698.c ****                         if (FALSE == FormatDataToBinaryS(stCollData.stDataUnit[k].ucPtr + 1, stColl
 651:../user/source/DLT698.c ****                         {
 652:../user/source/DLT698.c ****                             return ERROR;
 653:../user/source/DLT698.c ****                         }
 654:../user/source/DLT698.c **** 
 655:../user/source/DLT698.c ****                         switch (stCollData.eDataCls)
 656:../user/source/DLT698.c ****                         {
 657:../user/source/DLT698.c ****                         case D_CLASS_CUR_FREEZE:
ARM GAS  C:\Users\strag\AppData\Local\Temp\cc3UPhIa.s 			page 13


 658:../user/source/DLT698.c ****                         {
 659:../user/source/DLT698.c ****                             stTime.tm_sec = 0x00;
 660:../user/source/DLT698.c ****                         }
 661:../user/source/DLT698.c ****                         break;
 662:../user/source/DLT698.c ****                         case D_CLASS_DAY_FREEZE:
 663:../user/source/DLT698.c ****                         {
 664:../user/source/DLT698.c **** #ifdef SHANDONG
 665:../user/source/DLT698.c **** 
 666:../user/source/DLT698.c ****                             timeNow = time(NULL);
 667:../user/source/DLT698.c ****                             localtime_r(&timeNow, &tmNow);
 668:../user/source/DLT698.c **** 
 669:../user/source/DLT698.c ****                             if (tmNow.tm_mday != stTime.tm_mday || tmNow.tm_mon != stTime.tm_mon ||
 670:../user/source/DLT698.c ****                             {
 671:../user/source/DLT698.c ****                                 return 0;
 672:../user/source/DLT698.c ****                             }
 673:../user/source/DLT698.c **** #endif
 674:../user/source/DLT698.c **** 
 675:../user/source/DLT698.c ****                             stTime.tm_hour = 0x00;
 676:../user/source/DLT698.c ****                             stTime.tm_min = 0x00;
 677:../user/source/DLT698.c ****                             stTime.tm_sec = 0x00;
 678:../user/source/DLT698.c ****                         }
 679:../user/source/DLT698.c ****                         break;
 680:../user/source/DLT698.c ****                         case D_CLASS_MON_FREEZE:
 681:../user/source/DLT698.c ****                         {
 682:../user/source/DLT698.c **** #ifdef SHANDONG
 683:../user/source/DLT698.c **** 
 684:../user/source/DLT698.c ****                             timeNow = time(NULL);
 685:../user/source/DLT698.c ****                             localtime_r(&timeNow, &tmNow);
 686:../user/source/DLT698.c **** 
 687:../user/source/DLT698.c ****                             if (tmNow.tm_mon != stTime.tm_mon || tmNow.tm_year != stTime.tm_year)
 688:../user/source/DLT698.c ****                             {
 689:../user/source/DLT698.c ****                                 return 0;
 690:../user/source/DLT698.c ****                             }
 691:../user/source/DLT698.c **** #endif
 692:../user/source/DLT698.c **** 
 693:../user/source/DLT698.c ****                             stTime.tm_mday = 0x01;
 694:../user/source/DLT698.c ****                             stTime.tm_hour = 0x00;
 695:../user/source/DLT698.c ****                             stTime.tm_min = 0x00;
 696:../user/source/DLT698.c ****                             stTime.tm_sec = 0x00;
 697:../user/source/DLT698.c ****                         }
 698:../user/source/DLT698.c ****                         break;
 699:../user/source/DLT698.c ****                         default:
 700:../user/source/DLT698.c ****                             return ERROR;
 701:../user/source/DLT698.c ****                         }
 702:../user/source/DLT698.c **** 
 703:../user/source/DLT698.c ****                         stCollData.stDataUnit[k].ucVal = 0;
 704:../user/source/DLT698.c ****                         stCollData.tFreezeTag = mktime(&stTime);
 705:../user/source/DLT698.c ****                     }
 706:../user/source/DLT698.c ****                     break;
 707:../user/source/DLT698.c ****                     case OI_EVENT_RCRD_NUM:
 708:../user/source/DLT698.c ****                     {
 709:../user/source/DLT698.c ****                         if (DL_D_LONG_UNS != stCollData.stDataUnit[k].ucPtr[0])
 710:../user/source/DLT698.c ****                         {
 711:../user/source/DLT698.c ****                             return -1;
 712:../user/source/DLT698.c ****                         }
 713:../user/source/DLT698.c **** 
 714:../user/source/DLT698.c ****                         stCollData.stDataUnit[k].ucVal = 0;
ARM GAS  C:\Users\strag\AppData\Local\Temp\cc3UPhIa.s 			page 14


 715:../user/source/DLT698.c ****                         stCollData.udwRecordNo = LONGSWAP(*(UINT32 *)(stCollData.stDataUnit[k].ucPt
 716:../user/source/DLT698.c ****                     }
 717:../user/source/DLT698.c ****                     break;
 718:../user/source/DLT698.c ****                     case OI_OCCURRENCE_TIME:
 719:../user/source/DLT698.c ****                     {
 720:../user/source/DLT698.c ****                         if (FALSE == FormatDataToBinaryS(stCollData.stDataUnit[k].ucPtr + 1, stColl
 721:../user/source/DLT698.c ****                         {
 722:../user/source/DLT698.c ****                             return -1;
 723:../user/source/DLT698.c ****                         }
 724:../user/source/DLT698.c **** 
 725:../user/source/DLT698.c ****                         stCollData.stDataUnit[k].ucVal = 0;
 726:../user/source/DLT698.c ****                         stCollData.tEventHappen = mktime(&stTime);
 727:../user/source/DLT698.c ****                     }
 728:../user/source/DLT698.c ****                     break;
 729:../user/source/DLT698.c ****                     case OI_END_TIME:
 730:../user/source/DLT698.c ****                     {
 731:../user/source/DLT698.c ****                         if (FALSE == FormatDataToBinaryS(stCollData.stDataUnit[k].ucPtr + 1, stColl
 732:../user/source/DLT698.c ****                         {
 733:../user/source/DLT698.c ****                             stCollData.stDataUnit[k].ucVal = 0;
 734:../user/source/DLT698.c ****                             stCollData.tEventFinish = 0xFFFFFFFF;
 735:../user/source/DLT698.c ****                             //return -1;
 736:../user/source/DLT698.c ****                         }
 737:../user/source/DLT698.c ****                         else
 738:../user/source/DLT698.c ****                         {
 739:../user/source/DLT698.c ****                             stCollData.stDataUnit[k].ucVal = 0;
 740:../user/source/DLT698.c ****                             stCollData.tEventFinish = mktime(&stTime);
 741:../user/source/DLT698.c ****                         }
 742:../user/source/DLT698.c ****                     }
 743:../user/source/DLT698.c ****                     break;
 744:../user/source/DLT698.c ****                     default:
 745:../user/source/DLT698.c ****                         break;
 746:../user/source/DLT698.c ****                     }
 747:../user/source/DLT698.c **** #endif
 748:../user/source/DLT698.c ****                 }
 749:../user/source/DLT698.c **** 
 750:../user/source/DLT698.c **** #if 0
 751:../user/source/DLT698.c ****                 blMeterDataChange(stID.ucTaskID, &stCollData);
 752:../user/source/DLT698.c **** 
 753:../user/source/DLT698.c ****                 if (0 == stID.ucLastNTimes) //补抄任务
 754:../user/source/DLT698.c ****                 {
 755:../user/source/DLT698.c ****                     if (OK != dwDealDataStore(&stCollData, stID))
 756:../user/source/DLT698.c ****                     {
 757:../user/source/DLT698.c ****                         return -1;
 758:../user/source/DLT698.c ****                     }
 759:../user/source/DLT698.c ****                 }
 760:../user/source/DLT698.c ****                 else //补抄任务，抄一帧存一帧
 761:../user/source/DLT698.c ****                 {
 762:../user/source/DLT698.c ****                     if (OK != dwCollRetryDataStore(&stCollData, stID))
 763:../user/source/DLT698.c ****                     {
 764:../user/source/DLT698.c ****                         return -1;
 765:../user/source/DLT698.c ****                     }
 766:../user/source/DLT698.c ****                 }
 767:../user/source/DLT698.c **** #endif
 768:../user/source/DLT698.c ****             }
 769:../user/source/DLT698.c **** #if 0
 770:../user/source/DLT698.c ****             /*********跟随上报标志********/
 771:../user/source/DLT698.c ****             if (1 == *Ptr++) //跟随上报标志
ARM GAS  C:\Users\strag\AppData\Local\Temp\cc3UPhIa.s 			page 15


 772:../user/source/DLT698.c ****             {
 773:../user/source/DLT698.c ****                 if (1 == *Ptr++) //若干个对象属性及其数据 [1]  SEQUENCE OF A-ResultNorma
 774:../user/source/DLT698.c ****                 {
 775:../user/source/DLT698.c ****                     ucNum = *Ptr++; // 个数 SEQUENCE OF A-ResultNormal
 776:../user/source/DLT698.c **** 
 777:../user/source/DLT698.c ****                     for (i = 0; i < ucNum; i++)
 778:../user/source/DLT698.c ****                     {
 779:../user/source/DLT698.c ****                         Ptr += dwGetOad(Ptr, &stOAD);
 780:../user/source/DLT698.c ****                         if ((0x3320 == stOAD.OI_date) && (0x02 == stOAD.attr_ID) && (0x01 == stOAD.
 781:../user/source/DLT698.c ****                         {
 782:../user/source/DLT698.c ****                             if (1 == *Ptr++) //结果类型
 783:../user/source/DLT698.c ****                             {
 784:../user/source/DLT698.c ****                                 if (DL_OAD == *Ptr++)
 785:../user/source/DLT698.c ****                                 {
 786:../user/source/DLT698.c ****                                     stFollowRptInfo[uwConfigNo - 1].ucFollowRptFlag = 1;
 787:../user/source/DLT698.c ****                                     stFollowRptInfo[uwConfigNo - 1].stFollowRptEventOAD.OI_date = M
 788:../user/source/DLT698.c ****                                     Ptr += 2;
 789:../user/source/DLT698.c ****                                     stFollowRptInfo[uwConfigNo - 1].stFollowRptEventOAD.attr_ID = *
 790:../user/source/DLT698.c ****                                     stFollowRptInfo[uwConfigNo - 1].stFollowRptEventOAD.attr_index 
 791:../user/source/DLT698.c ****                                 }
 792:../user/source/DLT698.c ****                             }
 793:../user/source/DLT698.c ****                         }
 794:../user/source/DLT698.c ****                         else if (0x2015 == stOAD.OI_date)
 795:../user/source/DLT698.c ****                         {
 796:../user/source/DLT698.c ****                             if (1 == *Ptr++) //结果类型
 797:../user/source/DLT698.c ****                             {
 798:../user/source/DLT698.c ****                                 if (*Ptr++ != DL_BIT_STR)
 799:../user/source/DLT698.c ****                                 {
 800:../user/source/DLT698.c ****                                     continue;
 801:../user/source/DLT698.c ****                                 }
 802:../user/source/DLT698.c ****                                 if (*Ptr++ != 32)
 803:../user/source/DLT698.c ****                                 {
 804:../user/source/DLT698.c ****                                     continue;
 805:../user/source/DLT698.c ****                                 }
 806:../user/source/DLT698.c ****                                 blFollowReportSWord = TRUE;
 807:../user/source/DLT698.c ****                                 memcpy(ucFollowReportSWord, Ptr, 0x04);
 808:../user/source/DLT698.c ****                                 Ptr += 4;
 809:../user/source/DLT698.c ****                             }
 810:../user/source/DLT698.c ****                         }
 811:../user/source/DLT698.c ****                     }
 812:../user/source/DLT698.c ****                 }
 813:../user/source/DLT698.c ****             }
 814:../user/source/DLT698.c **** #endif
 815:../user/source/DLT698.c ****         }
 816:../user/source/DLT698.c ****         else
 817:../user/source/DLT698.c ****         {
 818:../user/source/DLT698.c ****             return -1;
 819:../user/source/DLT698.c ****         }
 820:../user/source/DLT698.c ****     }
 821:../user/source/DLT698.c **** 
 822:../user/source/DLT698.c ****     return 1;
 823:../user/source/DLT698.c **** }
 824:../user/source/DLT698.c **** 
 825:../user/source/DLT698.c **** /**
 826:../user/source/DLT698.c ****   ************************************************************************
 827:../user/source/DLT698.c ****   * @brief    : count data length of the frist data in ucRcvBuf
 828:../user/source/DLT698.c ****   * @param    : ucRcvBuf : source code (with data identifier)
ARM GAS  C:\Users\strag\AppData\Local\Temp\cc3UPhIa.s 			page 16


 829:../user/source/DLT698.c ****   *             dwRcvLen : valid length of source code
 830:../user/source/DLT698.c ****   * @return   : -1   : error    
 831:../user/source/DLT698.c ****                 else : data length of the frist data in the source code
 832:../user/source/DLT698.c ****   * @author   : Lixg
 833:../user/source/DLT698.c ****   * @version  : 0.1
 834:../user/source/DLT698.c ****   * @date     : 2017-7-21 13:37:37
 835:../user/source/DLT698.c ****   * @modify   : 
 836:../user/source/DLT698.c ****   * @see also : 
 837:../user/source/DLT698.c ****   ************************************************************************
 838:../user/source/DLT698.c ****   * @attention
 839:../user/source/DLT698.c ****   ************************************************************************
 840:../user/source/DLT698.c ****   */
 841:../user/source/DLT698.c **** int dwDlt698DataLen(UINT8 *ucRcvBuf, int dwRcvLen)
 842:../user/source/DLT698.c **** {
 843:../user/source/DLT698.c ****     assert(ucRcvBuf);
 844:../user/source/DLT698.c **** 
 845:../user/source/DLT698.c ****     UINT16 Len = 0;
 846:../user/source/DLT698.c ****     UINT8 *Ptr = ucRcvBuf;
 847:../user/source/DLT698.c **** 
 848:../user/source/DLT698.c ****     int i = 0, j = 0, Res = 0, varLen = 0, varLenB = 0, LenBytes = 0; // 可变长度
 849:../user/source/DLT698.c **** 
 850:../user/source/DLT698.c ****     /* data identify */
 851:../user/source/DLT698.c ****     Ptr++;
 852:../user/source/DLT698.c ****     Len++;
 853:../user/source/DLT698.c **** 
 854:../user/source/DLT698.c ****     switch (ucRcvBuf[0])
 855:../user/source/DLT698.c ****     {
 856:../user/source/DLT698.c ****     case DL_NULL:
 857:../user/source/DLT698.c ****     {
 858:../user/source/DLT698.c ****         /* data length */
 859:../user/source/DLT698.c ****         /* data contents */
 860:../user/source/DLT698.c ****     }
 861:../user/source/DLT698.c ****     break;
 862:../user/source/DLT698.c ****     case DL_ARRAY:
 863:../user/source/DLT698.c ****     {
 864:../user/source/DLT698.c ****         // data length
 865:../user/source/DLT698.c ****         if ((varLen = dwDlt698Len(Ptr, &LenBytes)) < 0)
 866:../user/source/DLT698.c ****         {
 867:../user/source/DLT698.c ****             return -1;
 868:../user/source/DLT698.c ****         }
 869:../user/source/DLT698.c **** 
 870:../user/source/DLT698.c ****         Len += LenBytes;
 871:../user/source/DLT698.c ****         Ptr += LenBytes;
 872:../user/source/DLT698.c **** 
 873:../user/source/DLT698.c ****         // data contents
 874:../user/source/DLT698.c ****         for (i = 0; i < varLen; i++)
 875:../user/source/DLT698.c ****         {
 876:../user/source/DLT698.c ****             if ((Res = dwDlt698DataLen(Ptr, dwRcvLen - Len)) <= 0)
 877:../user/source/DLT698.c ****             {
 878:../user/source/DLT698.c ****                 return -1;
 879:../user/source/DLT698.c ****             }
 880:../user/source/DLT698.c **** 
 881:../user/source/DLT698.c ****             Ptr += Res;
 882:../user/source/DLT698.c ****             Len += Res;
 883:../user/source/DLT698.c ****         }
 884:../user/source/DLT698.c ****     }
 885:../user/source/DLT698.c ****     break;
ARM GAS  C:\Users\strag\AppData\Local\Temp\cc3UPhIa.s 			page 17


 886:../user/source/DLT698.c ****     case DL_STRUCT:
 887:../user/source/DLT698.c ****     {
 888:../user/source/DLT698.c ****         // data length
 889:../user/source/DLT698.c ****         if ((varLen = dwDlt698Len(Ptr, &LenBytes)) < 0)
 890:../user/source/DLT698.c ****         {
 891:../user/source/DLT698.c ****             return -1;
 892:../user/source/DLT698.c ****         }
 893:../user/source/DLT698.c **** 
 894:../user/source/DLT698.c ****         Len += LenBytes;
 895:../user/source/DLT698.c ****         Ptr += LenBytes;
 896:../user/source/DLT698.c **** 
 897:../user/source/DLT698.c ****         // data contents
 898:../user/source/DLT698.c ****         for (i = 0; i < varLen; i++)
 899:../user/source/DLT698.c ****         {
 900:../user/source/DLT698.c ****             if ((Res = dwDlt698DataLen(Ptr, dwRcvLen - Len)) <= 0)
 901:../user/source/DLT698.c ****             {
 902:../user/source/DLT698.c ****                 return -1;
 903:../user/source/DLT698.c ****             }
 904:../user/source/DLT698.c **** 
 905:../user/source/DLT698.c ****             Ptr += Res;
 906:../user/source/DLT698.c ****             Len += Res;
 907:../user/source/DLT698.c ****         }
 908:../user/source/DLT698.c ****     }
 909:../user/source/DLT698.c ****     break;
 910:../user/source/DLT698.c ****     case DL_BOOL:
 911:../user/source/DLT698.c ****     {
 912:../user/source/DLT698.c ****         /* data length */
 913:../user/source/DLT698.c ****         /* data contents */
 914:../user/source/DLT698.c ****         Ptr++;
 915:../user/source/DLT698.c ****         Len++;
 916:../user/source/DLT698.c ****     }
 917:../user/source/DLT698.c ****     break;
 918:../user/source/DLT698.c ****     case DL_BIT_STR:
 919:../user/source/DLT698.c ****     {
 920:../user/source/DLT698.c ****         /* data length */
 921:../user/source/DLT698.c ****         if ((varLen = dwDlt698Len(Ptr, &LenBytes)) < 0)
 922:../user/source/DLT698.c ****         {
 923:../user/source/DLT698.c ****             return -1;
 924:../user/source/DLT698.c ****         }
 925:../user/source/DLT698.c **** 
 926:../user/source/DLT698.c ****         Len += LenBytes;
 927:../user/source/DLT698.c ****         Ptr += LenBytes;
 928:../user/source/DLT698.c **** 
 929:../user/source/DLT698.c ****         /* data contents */
 930:../user/source/DLT698.c ****         if (0 == (varLen % 8))
 931:../user/source/DLT698.c ****         {
 932:../user/source/DLT698.c ****             Ptr += varLen / 8;
 933:../user/source/DLT698.c ****             Len += varLen / 8;
 934:../user/source/DLT698.c ****         }
 935:../user/source/DLT698.c ****         else
 936:../user/source/DLT698.c ****         {
 937:../user/source/DLT698.c ****             Ptr += (varLen / 8) + 1;
 938:../user/source/DLT698.c ****             Len += (varLen / 8) + 1;
 939:../user/source/DLT698.c ****         }
 940:../user/source/DLT698.c ****     }
 941:../user/source/DLT698.c ****     break;
 942:../user/source/DLT698.c ****     case DL_D_LONG:
ARM GAS  C:\Users\strag\AppData\Local\Temp\cc3UPhIa.s 			page 18


 943:../user/source/DLT698.c ****     {
 944:../user/source/DLT698.c ****         /* data length */
 945:../user/source/DLT698.c ****         /* data contents */
 946:../user/source/DLT698.c ****         Ptr += 4;
 947:../user/source/DLT698.c ****         Len += 4;
 948:../user/source/DLT698.c ****     }
 949:../user/source/DLT698.c ****     break;
 950:../user/source/DLT698.c ****     case DL_D_LONG_UNS:
 951:../user/source/DLT698.c ****     {
 952:../user/source/DLT698.c ****         /* data length */
 953:../user/source/DLT698.c ****         /* data contents */
 954:../user/source/DLT698.c ****         Ptr += 4;
 955:../user/source/DLT698.c ****         Len += 4;
 956:../user/source/DLT698.c ****     }
 957:../user/source/DLT698.c ****     break;
 958:../user/source/DLT698.c ****     case DL_OCTET_STR:
 959:../user/source/DLT698.c ****     {
 960:../user/source/DLT698.c ****         /* data length */
 961:../user/source/DLT698.c ****         if ((varLen = dwDlt698Len(Ptr, &LenBytes)) < 0)
 962:../user/source/DLT698.c ****         {
 963:../user/source/DLT698.c ****             return -1;
 964:../user/source/DLT698.c ****         }
 965:../user/source/DLT698.c **** 
 966:../user/source/DLT698.c ****         Len += LenBytes;
 967:../user/source/DLT698.c ****         Ptr += LenBytes;
 968:../user/source/DLT698.c **** 
 969:../user/source/DLT698.c ****         /* data contents */
 970:../user/source/DLT698.c ****         Ptr += varLen;
 971:../user/source/DLT698.c ****         Len += varLen;
 972:../user/source/DLT698.c ****     }
 973:../user/source/DLT698.c ****     break;
 974:../user/source/DLT698.c ****     case DL_VISIBLE_STR:
 975:../user/source/DLT698.c ****     {
 976:../user/source/DLT698.c ****         /* data length */
 977:../user/source/DLT698.c ****         if ((varLen = dwDlt698Len(Ptr, &LenBytes)) < 0)
 978:../user/source/DLT698.c ****         {
 979:../user/source/DLT698.c ****             return -1;
 980:../user/source/DLT698.c ****         }
 981:../user/source/DLT698.c **** 
 982:../user/source/DLT698.c ****         Len += LenBytes;
 983:../user/source/DLT698.c ****         Ptr += LenBytes;
 984:../user/source/DLT698.c **** 
 985:../user/source/DLT698.c ****         /* data contents */
 986:../user/source/DLT698.c ****         Ptr += varLen;
 987:../user/source/DLT698.c ****         Len += varLen;
 988:../user/source/DLT698.c ****     }
 989:../user/source/DLT698.c ****     break;
 990:../user/source/DLT698.c ****     case DL_UTF8_STR:
 991:../user/source/DLT698.c ****     {
 992:../user/source/DLT698.c ****         /* data length */
 993:../user/source/DLT698.c ****         if ((varLen = dwDlt698Len(Ptr, &LenBytes)) < 0)
 994:../user/source/DLT698.c ****         {
 995:../user/source/DLT698.c ****             return -1;
 996:../user/source/DLT698.c ****         }
 997:../user/source/DLT698.c **** 
 998:../user/source/DLT698.c ****         Len += LenBytes;
 999:../user/source/DLT698.c ****         Ptr += LenBytes;
ARM GAS  C:\Users\strag\AppData\Local\Temp\cc3UPhIa.s 			page 19


1000:../user/source/DLT698.c **** 
1001:../user/source/DLT698.c ****         /* data contents */
1002:../user/source/DLT698.c ****         Ptr += varLen;
1003:../user/source/DLT698.c ****         Len += varLen;
1004:../user/source/DLT698.c ****     }
1005:../user/source/DLT698.c ****     break;
1006:../user/source/DLT698.c ****     case DL_INTEGER:
1007:../user/source/DLT698.c ****     {
1008:../user/source/DLT698.c ****         /* data length */
1009:../user/source/DLT698.c ****         /* data contents */
1010:../user/source/DLT698.c ****         Ptr++;
1011:../user/source/DLT698.c ****         Len++;
1012:../user/source/DLT698.c ****     }
1013:../user/source/DLT698.c ****     break;
1014:../user/source/DLT698.c ****     case DL_LONG:
1015:../user/source/DLT698.c ****     {
1016:../user/source/DLT698.c ****         /* data length */
1017:../user/source/DLT698.c ****         /* data contents */
1018:../user/source/DLT698.c ****         Ptr += 2;
1019:../user/source/DLT698.c ****         Len += 2;
1020:../user/source/DLT698.c ****     }
1021:../user/source/DLT698.c ****     break;
1022:../user/source/DLT698.c ****     case DL_CHAR_UNS:
1023:../user/source/DLT698.c ****     {
1024:../user/source/DLT698.c ****         /* data length */
1025:../user/source/DLT698.c ****         /* data contents */
1026:../user/source/DLT698.c ****         Ptr += 1;
1027:../user/source/DLT698.c ****         Len += 1;
1028:../user/source/DLT698.c ****     }
1029:../user/source/DLT698.c ****     break;
1030:../user/source/DLT698.c ****     case DL_LONG_UNS:
1031:../user/source/DLT698.c ****     {
1032:../user/source/DLT698.c ****         /* data length */
1033:../user/source/DLT698.c ****         /* data contents */
1034:../user/source/DLT698.c ****         Ptr += 2;
1035:../user/source/DLT698.c ****         Len += 2;
1036:../user/source/DLT698.c ****     }
1037:../user/source/DLT698.c ****     break;
1038:../user/source/DLT698.c ****     case DL_LONG64:
1039:../user/source/DLT698.c ****     {
1040:../user/source/DLT698.c ****         /* data length */
1041:../user/source/DLT698.c ****         /* data contents */
1042:../user/source/DLT698.c ****         Ptr += 8;
1043:../user/source/DLT698.c ****         Len += 8;
1044:../user/source/DLT698.c ****     }
1045:../user/source/DLT698.c ****     break;
1046:../user/source/DLT698.c ****     case DL_LONG64_UNS:
1047:../user/source/DLT698.c ****     {
1048:../user/source/DLT698.c ****         /* data length */
1049:../user/source/DLT698.c ****         /* data contents */
1050:../user/source/DLT698.c ****         Ptr += 8;
1051:../user/source/DLT698.c ****         Len += 8;
1052:../user/source/DLT698.c ****     }
1053:../user/source/DLT698.c ****     break;
1054:../user/source/DLT698.c ****     case DL_ENUM:
1055:../user/source/DLT698.c ****     {
1056:../user/source/DLT698.c ****         /* data length */
ARM GAS  C:\Users\strag\AppData\Local\Temp\cc3UPhIa.s 			page 20


1057:../user/source/DLT698.c ****         /* data contents */
1058:../user/source/DLT698.c ****         Ptr += 1;
1059:../user/source/DLT698.c ****         Len += 1;
1060:../user/source/DLT698.c ****     }
1061:../user/source/DLT698.c ****     break;
1062:../user/source/DLT698.c ****     case DL_FLOAT32:
1063:../user/source/DLT698.c ****     {
1064:../user/source/DLT698.c ****         /* data length */
1065:../user/source/DLT698.c ****         /* data contents */
1066:../user/source/DLT698.c ****         Ptr += 4;
1067:../user/source/DLT698.c ****         Len += 4;
1068:../user/source/DLT698.c ****     }
1069:../user/source/DLT698.c ****     break;
1070:../user/source/DLT698.c ****     case DL_FLOAT64:
1071:../user/source/DLT698.c ****     {
1072:../user/source/DLT698.c ****         /* data length */
1073:../user/source/DLT698.c ****         /* data contents */
1074:../user/source/DLT698.c ****         Ptr += 8;
1075:../user/source/DLT698.c ****         Len += 8;
1076:../user/source/DLT698.c ****     }
1077:../user/source/DLT698.c ****     break;
1078:../user/source/DLT698.c ****     case DL_DATE_TIME:
1079:../user/source/DLT698.c ****     {
1080:../user/source/DLT698.c ****         /* data length */
1081:../user/source/DLT698.c ****         /* data contents */
1082:../user/source/DLT698.c ****         Ptr += 10;
1083:../user/source/DLT698.c ****         Len += 10;
1084:../user/source/DLT698.c ****     }
1085:../user/source/DLT698.c ****     break;
1086:../user/source/DLT698.c ****     case DL_DATE:
1087:../user/source/DLT698.c ****     {
1088:../user/source/DLT698.c ****         /* data length */
1089:../user/source/DLT698.c ****         /* data contents */
1090:../user/source/DLT698.c ****         Ptr += 5;
1091:../user/source/DLT698.c ****         Len += 5;
1092:../user/source/DLT698.c ****     }
1093:../user/source/DLT698.c ****     break;
1094:../user/source/DLT698.c ****     case DL_TIME:
1095:../user/source/DLT698.c ****     {
1096:../user/source/DLT698.c ****         /* data length */
1097:../user/source/DLT698.c ****         /* data contents */
1098:../user/source/DLT698.c ****         Ptr += 3;
1099:../user/source/DLT698.c ****         Len += 3;
1100:../user/source/DLT698.c ****     }
1101:../user/source/DLT698.c ****     break;
1102:../user/source/DLT698.c ****     case DL_DATE_TIME_S:
1103:../user/source/DLT698.c ****     {
1104:../user/source/DLT698.c ****         /* data length */
1105:../user/source/DLT698.c ****         /* data contents */
1106:../user/source/DLT698.c ****         Ptr += 7;
1107:../user/source/DLT698.c ****         Len += 7;
1108:../user/source/DLT698.c ****     }
1109:../user/source/DLT698.c ****     break;
1110:../user/source/DLT698.c ****     case DL_OI:
1111:../user/source/DLT698.c ****     {
1112:../user/source/DLT698.c ****         /* data length */
1113:../user/source/DLT698.c ****         /* data contents */
ARM GAS  C:\Users\strag\AppData\Local\Temp\cc3UPhIa.s 			page 21


1114:../user/source/DLT698.c ****         Ptr += 2;
1115:../user/source/DLT698.c ****         Len += 2;
1116:../user/source/DLT698.c ****     }
1117:../user/source/DLT698.c ****     break;
1118:../user/source/DLT698.c ****     case DL_OAD:
1119:../user/source/DLT698.c ****     {
1120:../user/source/DLT698.c ****         /* data length */
1121:../user/source/DLT698.c ****         /* data contents */
1122:../user/source/DLT698.c ****         Ptr += 4;
1123:../user/source/DLT698.c ****         Len += 4;
1124:../user/source/DLT698.c ****     }
1125:../user/source/DLT698.c ****     break;
1126:../user/source/DLT698.c ****     case DL_ROAD:
1127:../user/source/DLT698.c ****     {
1128:../user/source/DLT698.c ****         Ptr += 4;
1129:../user/source/DLT698.c ****         Len += 4;
1130:../user/source/DLT698.c **** 
1131:../user/source/DLT698.c ****         // OAD number
1132:../user/source/DLT698.c ****         if ((varLen = dwDlt698Len(Ptr, &LenBytes)) < 0)
1133:../user/source/DLT698.c ****         {
1134:../user/source/DLT698.c ****             return -1;
1135:../user/source/DLT698.c ****         }
1136:../user/source/DLT698.c **** 
1137:../user/source/DLT698.c ****         Len += LenBytes;
1138:../user/source/DLT698.c ****         Ptr += LenBytes;
1139:../user/source/DLT698.c **** 
1140:../user/source/DLT698.c ****         // relevance OAD
1141:../user/source/DLT698.c ****         for (i = 0; i < varLen; i++)
1142:../user/source/DLT698.c ****         {
1143:../user/source/DLT698.c ****             Ptr += 4;
1144:../user/source/DLT698.c ****             Len += 4;
1145:../user/source/DLT698.c ****         }
1146:../user/source/DLT698.c ****     }
1147:../user/source/DLT698.c ****     break;
1148:../user/source/DLT698.c ****     case DL_OMD:
1149:../user/source/DLT698.c ****     {
1150:../user/source/DLT698.c ****         /* data length */
1151:../user/source/DLT698.c ****         /* data contents */
1152:../user/source/DLT698.c ****         Ptr += 4;
1153:../user/source/DLT698.c ****         Len += 4;
1154:../user/source/DLT698.c ****     }
1155:../user/source/DLT698.c ****     break;
1156:../user/source/DLT698.c ****     case DL_TI:
1157:../user/source/DLT698.c ****     {
1158:../user/source/DLT698.c ****         /* data length */
1159:../user/source/DLT698.c ****         /* data contents */
1160:../user/source/DLT698.c ****         Ptr += 3;
1161:../user/source/DLT698.c ****         Len += 3;
1162:../user/source/DLT698.c ****     }
1163:../user/source/DLT698.c ****     break;
1164:../user/source/DLT698.c ****     case DL_TSA: // octet-string
1165:../user/source/DLT698.c ****     {
1166:../user/source/DLT698.c ****         /* data length */
1167:../user/source/DLT698.c ****         if ((varLen = dwDlt698Len(Ptr, &LenBytes)) < 0)
1168:../user/source/DLT698.c ****         {
1169:../user/source/DLT698.c ****             return -1;
1170:../user/source/DLT698.c ****         }
ARM GAS  C:\Users\strag\AppData\Local\Temp\cc3UPhIa.s 			page 22


1171:../user/source/DLT698.c **** 
1172:../user/source/DLT698.c ****         Len += LenBytes;
1173:../user/source/DLT698.c ****         Ptr += LenBytes;
1174:../user/source/DLT698.c **** 
1175:../user/source/DLT698.c ****         /* data contents */
1176:../user/source/DLT698.c ****         Ptr += varLen;
1177:../user/source/DLT698.c ****         Len += varLen;
1178:../user/source/DLT698.c ****     }
1179:../user/source/DLT698.c ****     break;
1180:../user/source/DLT698.c ****     case DL_MAC: // octet-string
1181:../user/source/DLT698.c ****     case DL_RN:  // octet-string
1182:../user/source/DLT698.c ****     {
1183:../user/source/DLT698.c ****         /* data length */
1184:../user/source/DLT698.c ****         if ((varLen = dwDlt698Len(Ptr, &LenBytes)) < 0)
1185:../user/source/DLT698.c ****         {
1186:../user/source/DLT698.c ****             return -1;
1187:../user/source/DLT698.c ****         }
1188:../user/source/DLT698.c **** 
1189:../user/source/DLT698.c ****         Len += LenBytes;
1190:../user/source/DLT698.c ****         Ptr += LenBytes;
1191:../user/source/DLT698.c **** 
1192:../user/source/DLT698.c ****         /* data contents */
1193:../user/source/DLT698.c ****         Ptr += varLen;
1194:../user/source/DLT698.c ****         Len += varLen;
1195:../user/source/DLT698.c ****     }
1196:../user/source/DLT698.c ****     break;
1197:../user/source/DLT698.c ****     case DL_REGION:
1198:../user/source/DLT698.c ****     {
1199:../user/source/DLT698.c ****         /* data length */
1200:../user/source/DLT698.c ****         /* data contents */
1201:../user/source/DLT698.c ****         Ptr += 1;
1202:../user/source/DLT698.c ****         Len += 1; // ENUMERATED
1203:../user/source/DLT698.c **** 
1204:../user/source/DLT698.c ****         if ((Res = dwDlt698DataLen(Ptr, dwRcvLen - Len)) < 0)
1205:../user/source/DLT698.c ****         { // start data
1206:../user/source/DLT698.c ****             return -1;
1207:../user/source/DLT698.c ****         }
1208:../user/source/DLT698.c ****         Ptr += Res;
1209:../user/source/DLT698.c ****         Len += Res;
1210:../user/source/DLT698.c **** 
1211:../user/source/DLT698.c ****         if ((Res = dwDlt698DataLen(Ptr, dwRcvLen - Len)) < 0)
1212:../user/source/DLT698.c ****         { // end data
1213:../user/source/DLT698.c ****             return -1;
1214:../user/source/DLT698.c ****         }
1215:../user/source/DLT698.c ****         Ptr += Res;
1216:../user/source/DLT698.c ****         Len += Res;
1217:../user/source/DLT698.c ****     }
1218:../user/source/DLT698.c ****     break;
1219:../user/source/DLT698.c ****     case DL_SCALER_UNIT:
1220:../user/source/DLT698.c ****     {
1221:../user/source/DLT698.c ****         /* data length */
1222:../user/source/DLT698.c ****         /* data contents */
1223:../user/source/DLT698.c ****         Ptr += 1;
1224:../user/source/DLT698.c ****         Len += 1;
1225:../user/source/DLT698.c **** 
1226:../user/source/DLT698.c ****         Ptr += 1;
1227:../user/source/DLT698.c ****         Len += 1; // ENUMERATED
ARM GAS  C:\Users\strag\AppData\Local\Temp\cc3UPhIa.s 			page 23


1228:../user/source/DLT698.c ****     }
1229:../user/source/DLT698.c ****     break;
1230:../user/source/DLT698.c ****     case DL_RSD:
1231:../user/source/DLT698.c ****     {
1232:../user/source/DLT698.c ****         if ((Res = dwDlt698RSDLen(Ptr, dwRcvLen - Len)) < 0)
1233:../user/source/DLT698.c ****         {
1234:../user/source/DLT698.c ****             return -1;
1235:../user/source/DLT698.c ****         }
1236:../user/source/DLT698.c **** 
1237:../user/source/DLT698.c ****         Ptr += Res;
1238:../user/source/DLT698.c ****         Len += Res;
1239:../user/source/DLT698.c ****     }
1240:../user/source/DLT698.c ****     break;
1241:../user/source/DLT698.c ****     case DL_CSD:
1242:../user/source/DLT698.c ****     {
1243:../user/source/DLT698.c ****         if (*Ptr == 0)
1244:../user/source/DLT698.c ****         {
1245:../user/source/DLT698.c ****             Ptr += 1; // choice
1246:../user/source/DLT698.c ****             Len += 1;
1247:../user/source/DLT698.c **** 
1248:../user/source/DLT698.c ****             Ptr += 4; // OAD
1249:../user/source/DLT698.c ****             Len += 4;
1250:../user/source/DLT698.c ****         }
1251:../user/source/DLT698.c ****         else if (*Ptr == 1)
1252:../user/source/DLT698.c ****         {
1253:../user/source/DLT698.c ****             Ptr += 1; // choice
1254:../user/source/DLT698.c ****             Len += 1;
1255:../user/source/DLT698.c **** 
1256:../user/source/DLT698.c ****             Ptr += 4; // OAD
1257:../user/source/DLT698.c ****             Len += 4;
1258:../user/source/DLT698.c **** 
1259:../user/source/DLT698.c ****             // relevance OAD number
1260:../user/source/DLT698.c ****             if ((varLenB = dwDlt698Len(Ptr, &LenBytes)) < 0)
1261:../user/source/DLT698.c ****             {
1262:../user/source/DLT698.c ****                 return -1;
1263:../user/source/DLT698.c ****             }
1264:../user/source/DLT698.c **** 
1265:../user/source/DLT698.c ****             Len += LenBytes;
1266:../user/source/DLT698.c ****             Ptr += LenBytes;
1267:../user/source/DLT698.c **** 
1268:../user/source/DLT698.c ****             // relevance OAD
1269:../user/source/DLT698.c ****             for (j = 0; j < varLenB; j++)
1270:../user/source/DLT698.c ****             {
1271:../user/source/DLT698.c ****                 if (Len > dwRcvLen)
1272:../user/source/DLT698.c ****                 {
1273:../user/source/DLT698.c ****                     return -1;
1274:../user/source/DLT698.c ****                 }
1275:../user/source/DLT698.c **** 
1276:../user/source/DLT698.c ****                 Ptr += 4;
1277:../user/source/DLT698.c ****                 Len += 4;
1278:../user/source/DLT698.c ****             }
1279:../user/source/DLT698.c ****         }
1280:../user/source/DLT698.c ****         else
1281:../user/source/DLT698.c ****         {
1282:../user/source/DLT698.c ****             return -1;
1283:../user/source/DLT698.c ****         }
1284:../user/source/DLT698.c ****     }
ARM GAS  C:\Users\strag\AppData\Local\Temp\cc3UPhIa.s 			page 24


1285:../user/source/DLT698.c ****     break;
1286:../user/source/DLT698.c ****     case DL_MS:
1287:../user/source/DLT698.c ****     {
1288:../user/source/DLT698.c ****         if ((Res = dwDlt698MsLen(Ptr, dwRcvLen - Len)) < 0)
1289:../user/source/DLT698.c ****         {
1290:../user/source/DLT698.c ****             return -1;
1291:../user/source/DLT698.c ****         }
1292:../user/source/DLT698.c **** 
1293:../user/source/DLT698.c ****         Ptr += Res;
1294:../user/source/DLT698.c ****         Len += Res;
1295:../user/source/DLT698.c ****     }
1296:../user/source/DLT698.c ****     break;
1297:../user/source/DLT698.c ****     case DL_SID:
1298:../user/source/DLT698.c ****     {
1299:../user/source/DLT698.c ****         /* data length */
1300:../user/source/DLT698.c ****         /* data contents */
1301:../user/source/DLT698.c ****         Ptr += 4;
1302:../user/source/DLT698.c ****         Len += 4;
1303:../user/source/DLT698.c **** 
1304:../user/source/DLT698.c ****         if ((varLen = dwDlt698Len(Ptr, &LenBytes)) < 0)
1305:../user/source/DLT698.c ****         {
1306:../user/source/DLT698.c ****             return -1;
1307:../user/source/DLT698.c ****         }
1308:../user/source/DLT698.c **** 
1309:../user/source/DLT698.c ****         Len += LenBytes;
1310:../user/source/DLT698.c ****         Ptr += LenBytes;
1311:../user/source/DLT698.c **** 
1312:../user/source/DLT698.c ****         Ptr += varLen;
1313:../user/source/DLT698.c ****         Len += varLen;
1314:../user/source/DLT698.c ****     }
1315:../user/source/DLT698.c ****     break;
1316:../user/source/DLT698.c ****     case DL_SID_MAC:
1317:../user/source/DLT698.c ****     {
1318:../user/source/DLT698.c ****         /* SID */
1319:../user/source/DLT698.c ****         Ptr += 4;
1320:../user/source/DLT698.c ****         Len += 4;
1321:../user/source/DLT698.c **** 
1322:../user/source/DLT698.c ****         if ((varLen = dwDlt698Len(Ptr, &LenBytes)) < 0)
1323:../user/source/DLT698.c ****         {
1324:../user/source/DLT698.c ****             return -1;
1325:../user/source/DLT698.c ****         }
1326:../user/source/DLT698.c **** 
1327:../user/source/DLT698.c ****         Len += LenBytes;
1328:../user/source/DLT698.c ****         Ptr += LenBytes;
1329:../user/source/DLT698.c **** 
1330:../user/source/DLT698.c ****         Ptr += varLen;
1331:../user/source/DLT698.c ****         Len += varLen;
1332:../user/source/DLT698.c **** 
1333:../user/source/DLT698.c ****         /* MAC */
1334:../user/source/DLT698.c ****         if ((varLen = dwDlt698Len(Ptr, &LenBytes)) < 0)
1335:../user/source/DLT698.c ****         {
1336:../user/source/DLT698.c ****             return -1;
1337:../user/source/DLT698.c ****         }
1338:../user/source/DLT698.c **** 
1339:../user/source/DLT698.c ****         Len += LenBytes;
1340:../user/source/DLT698.c ****         Ptr += LenBytes;
1341:../user/source/DLT698.c **** 
ARM GAS  C:\Users\strag\AppData\Local\Temp\cc3UPhIa.s 			page 25


1342:../user/source/DLT698.c ****         Ptr += varLen;
1343:../user/source/DLT698.c ****         Len += varLen;
1344:../user/source/DLT698.c ****     }
1345:../user/source/DLT698.c ****     break;
1346:../user/source/DLT698.c ****     case DL_COMDCB:
1347:../user/source/DLT698.c ****     {
1348:../user/source/DLT698.c ****         Ptr += 5;
1349:../user/source/DLT698.c ****         Len += 5;
1350:../user/source/DLT698.c ****     }
1351:../user/source/DLT698.c ****     break;
1352:../user/source/DLT698.c ****     case DL_RCSD:
1353:../user/source/DLT698.c ****     {
1354:../user/source/DLT698.c ****         // CSD number
1355:../user/source/DLT698.c ****         if ((varLen = dwDlt698Len(Ptr, &LenBytes)) < 0)
1356:../user/source/DLT698.c ****         {
1357:../user/source/DLT698.c ****             return -1;
1358:../user/source/DLT698.c ****         }
1359:../user/source/DLT698.c **** 
1360:../user/source/DLT698.c ****         Len += LenBytes;
1361:../user/source/DLT698.c ****         Ptr += LenBytes;
1362:../user/source/DLT698.c **** 
1363:../user/source/DLT698.c ****         // CSD
1364:../user/source/DLT698.c ****         for (i = 0; i < varLen; i++)
1365:../user/source/DLT698.c ****         {
1366:../user/source/DLT698.c ****             if (Len > dwRcvLen)
1367:../user/source/DLT698.c ****             {
1368:../user/source/DLT698.c ****                 return -1;
1369:../user/source/DLT698.c ****             }
1370:../user/source/DLT698.c **** 
1371:../user/source/DLT698.c ****             if (*Ptr == 0)
1372:../user/source/DLT698.c ****             {
1373:../user/source/DLT698.c ****                 Ptr += 1; // choice
1374:../user/source/DLT698.c ****                 Len += 1;
1375:../user/source/DLT698.c **** 
1376:../user/source/DLT698.c ****                 Ptr += 4; // OAD
1377:../user/source/DLT698.c ****                 Len += 4;
1378:../user/source/DLT698.c ****             }
1379:../user/source/DLT698.c ****             else if (*Ptr == 1)
1380:../user/source/DLT698.c ****             {
1381:../user/source/DLT698.c ****                 Ptr += 1; // choice
1382:../user/source/DLT698.c ****                 Len += 1;
1383:../user/source/DLT698.c **** 
1384:../user/source/DLT698.c ****                 Ptr += 4; // OAD
1385:../user/source/DLT698.c ****                 Len += 4;
1386:../user/source/DLT698.c **** 
1387:../user/source/DLT698.c ****                 // relevance OAD number
1388:../user/source/DLT698.c ****                 if ((varLenB = dwDlt698Len(Ptr, &LenBytes)) < 0)
1389:../user/source/DLT698.c ****                 {
1390:../user/source/DLT698.c ****                     return -1;
1391:../user/source/DLT698.c ****                 }
1392:../user/source/DLT698.c **** 
1393:../user/source/DLT698.c ****                 Len += LenBytes;
1394:../user/source/DLT698.c ****                 Ptr += LenBytes;
1395:../user/source/DLT698.c **** 
1396:../user/source/DLT698.c ****                 // relevance OAD
1397:../user/source/DLT698.c ****                 for (j = 0; j < varLenB; j++)
1398:../user/source/DLT698.c ****                 {
ARM GAS  C:\Users\strag\AppData\Local\Temp\cc3UPhIa.s 			page 26


1399:../user/source/DLT698.c ****                     if (Len > dwRcvLen)
1400:../user/source/DLT698.c ****                     {
1401:../user/source/DLT698.c ****                         return -1;
1402:../user/source/DLT698.c ****                     }
1403:../user/source/DLT698.c **** 
1404:../user/source/DLT698.c ****                     Ptr += 4;
1405:../user/source/DLT698.c ****                     Len += 4;
1406:../user/source/DLT698.c ****                 }
1407:../user/source/DLT698.c ****             }
1408:../user/source/DLT698.c ****             else
1409:../user/source/DLT698.c ****             {
1410:../user/source/DLT698.c ****                 return -1;
1411:../user/source/DLT698.c ****             }
1412:../user/source/DLT698.c ****         }
1413:../user/source/DLT698.c ****     }
1414:../user/source/DLT698.c ****     break;
1415:../user/source/DLT698.c ****     default:
1416:../user/source/DLT698.c ****         return -1;
1417:../user/source/DLT698.c ****     }
1418:../user/source/DLT698.c **** 
1419:../user/source/DLT698.c ****     if (Len > dwRcvLen)
1420:../user/source/DLT698.c ****     {
1421:../user/source/DLT698.c ****         return -1;
1422:../user/source/DLT698.c ****     }
1423:../user/source/DLT698.c **** 
1424:../user/source/DLT698.c ****     return Len;
1425:../user/source/DLT698.c **** }
1426:../user/source/DLT698.c **** /**
1427:../user/source/DLT698.c ****   ************************************************************************
1428:../user/source/DLT698.c ****   * @brief    : count RSD length in the ucRcvBuf
1429:../user/source/DLT698.c ****   * @param    : ucRcvBuf : source code (do not contain data identifier)
1430:../user/source/DLT698.c ****   *             dwRcvLen : valid length of source code
1431:../user/source/DLT698.c ****   * @return   : -1   : error    
1432:../user/source/DLT698.c ****                 else : data length of RSD in the source code
1433:../user/source/DLT698.c ****   * @author   : Lixg
1434:../user/source/DLT698.c ****   * @version  : 0.1
1435:../user/source/DLT698.c ****   * @date     : 2017-7-21 13:37:37
1436:../user/source/DLT698.c ****   * @modify   : 
1437:../user/source/DLT698.c ****   * @see also : 
1438:../user/source/DLT698.c ****   ************************************************************************
1439:../user/source/DLT698.c ****   * @attention
1440:../user/source/DLT698.c ****   ************************************************************************
1441:../user/source/DLT698.c ****   */
1442:../user/source/DLT698.c **** int dwDlt698RSDLen(UINT8 *ucRcvBuf, int dwRcvLen)
1443:../user/source/DLT698.c **** {
1444:../user/source/DLT698.c ****     assert(ucRcvBuf);
1445:../user/source/DLT698.c **** 
1446:../user/source/DLT698.c ****     UINT16 Len = 0;
1447:../user/source/DLT698.c ****     UINT8 *Ptr = ucRcvBuf;
1448:../user/source/DLT698.c **** 
1449:../user/source/DLT698.c ****     int i = 0, Res = 0, varLen = 0, LenBytes = 0; // 可变长度
1450:../user/source/DLT698.c **** 
1451:../user/source/DLT698.c ****     if (*Ptr == 0)
1452:../user/source/DLT698.c ****     {
1453:../user/source/DLT698.c ****         Ptr += 1;
1454:../user/source/DLT698.c ****         Len += 1; // choice
1455:../user/source/DLT698.c **** 
ARM GAS  C:\Users\strag\AppData\Local\Temp\cc3UPhIa.s 			page 27


1456:../user/source/DLT698.c ****         //Ptr += 1;
1457:../user/source/DLT698.c ****         //Len += 1; // NULL
1458:../user/source/DLT698.c ****     }
1459:../user/source/DLT698.c ****     else if (*Ptr == 1)
1460:../user/source/DLT698.c ****     {
1461:../user/source/DLT698.c ****         Ptr += 1;
1462:../user/source/DLT698.c ****         Len += 1; // choice
1463:../user/source/DLT698.c **** 
1464:../user/source/DLT698.c ****         Ptr += 4;
1465:../user/source/DLT698.c ****         Len += 4; // OAD
1466:../user/source/DLT698.c **** 
1467:../user/source/DLT698.c ****         if ((Res = dwDlt698DataLen(Ptr, dwRcvLen - Len)) < 0)
1468:../user/source/DLT698.c ****         { // data
1469:../user/source/DLT698.c ****             return -1;
1470:../user/source/DLT698.c ****         }
1471:../user/source/DLT698.c ****         Ptr += Res;
1472:../user/source/DLT698.c ****         Len += Res;
1473:../user/source/DLT698.c ****     }
1474:../user/source/DLT698.c ****     else if (*Ptr == 2)
1475:../user/source/DLT698.c ****     {
1476:../user/source/DLT698.c ****         Ptr += 1;
1477:../user/source/DLT698.c ****         Len += 1; // choice
1478:../user/source/DLT698.c **** 
1479:../user/source/DLT698.c ****         Ptr += 4;
1480:../user/source/DLT698.c ****         Len += 4; // OAD
1481:../user/source/DLT698.c **** 
1482:../user/source/DLT698.c ****         if ((Res = dwDlt698DataLen(Ptr, dwRcvLen - Len)) < 0)
1483:../user/source/DLT698.c ****         { // start data
1484:../user/source/DLT698.c ****             return -1;
1485:../user/source/DLT698.c ****         }
1486:../user/source/DLT698.c ****         Ptr += Res;
1487:../user/source/DLT698.c ****         Len += Res;
1488:../user/source/DLT698.c **** 
1489:../user/source/DLT698.c ****         if ((Res = dwDlt698DataLen(Ptr, dwRcvLen - Len)) < 0)
1490:../user/source/DLT698.c ****         { // end data
1491:../user/source/DLT698.c ****             return -1;
1492:../user/source/DLT698.c ****         }
1493:../user/source/DLT698.c ****         Ptr += Res;
1494:../user/source/DLT698.c ****         Len += Res;
1495:../user/source/DLT698.c **** 
1496:../user/source/DLT698.c ****         if ((Res = dwDlt698DataLen(Ptr, dwRcvLen - Len)) < 0)
1497:../user/source/DLT698.c ****         { // TI
1498:../user/source/DLT698.c ****             return -1;
1499:../user/source/DLT698.c ****         }
1500:../user/source/DLT698.c ****         Ptr += Res;
1501:../user/source/DLT698.c ****         Len += Res;
1502:../user/source/DLT698.c ****     }
1503:../user/source/DLT698.c ****     else if (*Ptr == 3)
1504:../user/source/DLT698.c ****     {
1505:../user/source/DLT698.c ****         Ptr += 1;
1506:../user/source/DLT698.c ****         Len += 1; // choice
1507:../user/source/DLT698.c **** 
1508:../user/source/DLT698.c ****         // relevance OAD number
1509:../user/source/DLT698.c ****         if ((varLen = dwDlt698Len(Ptr, &LenBytes)) < 0)
1510:../user/source/DLT698.c ****         {
1511:../user/source/DLT698.c ****             return -1;
1512:../user/source/DLT698.c ****         }
ARM GAS  C:\Users\strag\AppData\Local\Temp\cc3UPhIa.s 			page 28


1513:../user/source/DLT698.c **** 
1514:../user/source/DLT698.c ****         Len += LenBytes;
1515:../user/source/DLT698.c ****         Ptr += LenBytes;
1516:../user/source/DLT698.c **** 
1517:../user/source/DLT698.c ****         for (i = 0; i < varLen; i++)
1518:../user/source/DLT698.c ****         {
1519:../user/source/DLT698.c ****             Ptr += 4;
1520:../user/source/DLT698.c ****             Len += 4; // OAD
1521:../user/source/DLT698.c **** 
1522:../user/source/DLT698.c ****             if ((Res = dwDlt698DataLen(Ptr, dwRcvLen - Len)) < 0)
1523:../user/source/DLT698.c ****             { // start data
1524:../user/source/DLT698.c ****                 return -1;
1525:../user/source/DLT698.c ****             }
1526:../user/source/DLT698.c ****             Ptr += Res;
1527:../user/source/DLT698.c ****             Len += Res;
1528:../user/source/DLT698.c **** 
1529:../user/source/DLT698.c ****             if ((Res = dwDlt698DataLen(Ptr, dwRcvLen - Len)) < 0)
1530:../user/source/DLT698.c ****             { // end data
1531:../user/source/DLT698.c ****                 return -1;
1532:../user/source/DLT698.c ****             }
1533:../user/source/DLT698.c ****             Ptr += Res;
1534:../user/source/DLT698.c ****             Len += Res;
1535:../user/source/DLT698.c **** 
1536:../user/source/DLT698.c ****             if ((Res = dwDlt698DataLen(Ptr, dwRcvLen - Len)) < 0)
1537:../user/source/DLT698.c ****             { // TI
1538:../user/source/DLT698.c ****                 return -1;
1539:../user/source/DLT698.c ****             }
1540:../user/source/DLT698.c ****             Ptr += Res;
1541:../user/source/DLT698.c ****             Len += Res;
1542:../user/source/DLT698.c ****         }
1543:../user/source/DLT698.c ****     }
1544:../user/source/DLT698.c ****     else if (*Ptr == 4 || *Ptr == 5)
1545:../user/source/DLT698.c ****     {
1546:../user/source/DLT698.c ****         Ptr += 1;
1547:../user/source/DLT698.c ****         Len += 1; // choice
1548:../user/source/DLT698.c **** 
1549:../user/source/DLT698.c ****         Ptr += 7;
1550:../user/source/DLT698.c ****         Len += 7; // data_time_s
1551:../user/source/DLT698.c **** 
1552:../user/source/DLT698.c ****         if ((Res = dwDlt698MsLen(Ptr, dwRcvLen - Len)) < 0)
1553:../user/source/DLT698.c ****         {
1554:../user/source/DLT698.c ****             return -1;
1555:../user/source/DLT698.c ****         }
1556:../user/source/DLT698.c **** 
1557:../user/source/DLT698.c ****         Ptr += Res; // MS
1558:../user/source/DLT698.c ****         Len += Res;
1559:../user/source/DLT698.c ****     }
1560:../user/source/DLT698.c ****     else if (*Ptr == 6 || *Ptr == 7 || *Ptr == 8)
1561:../user/source/DLT698.c ****     {
1562:../user/source/DLT698.c ****         Ptr += 1;
1563:../user/source/DLT698.c ****         Len += 1; // choice
1564:../user/source/DLT698.c **** 
1565:../user/source/DLT698.c ****         Ptr += 7;
1566:../user/source/DLT698.c ****         Len += 7; // data_time_s
1567:../user/source/DLT698.c **** 
1568:../user/source/DLT698.c ****         Ptr += 7;
1569:../user/source/DLT698.c ****         Len += 7; // data_time_s
ARM GAS  C:\Users\strag\AppData\Local\Temp\cc3UPhIa.s 			page 29


1570:../user/source/DLT698.c **** 
1571:../user/source/DLT698.c ****         Ptr += 3;
1572:../user/source/DLT698.c ****         Len += 3; // TI
1573:../user/source/DLT698.c **** 
1574:../user/source/DLT698.c ****         if ((Res = dwDlt698MsLen(Ptr, dwRcvLen - Len)) < 0)
1575:../user/source/DLT698.c ****         {
1576:../user/source/DLT698.c ****             return -1;
1577:../user/source/DLT698.c ****         }
1578:../user/source/DLT698.c **** 
1579:../user/source/DLT698.c ****         Ptr += Res; // MS
1580:../user/source/DLT698.c ****         Len += Res;
1581:../user/source/DLT698.c ****     }
1582:../user/source/DLT698.c ****     else if (*Ptr == 9)
1583:../user/source/DLT698.c ****     {
1584:../user/source/DLT698.c ****         Ptr += 1;
1585:../user/source/DLT698.c ****         Len += 1; // choice
1586:../user/source/DLT698.c **** 
1587:../user/source/DLT698.c ****         Ptr += 1;
1588:../user/source/DLT698.c ****         Len += 1; // last n
1589:../user/source/DLT698.c ****     }
1590:../user/source/DLT698.c ****     else if (*Ptr == 10)
1591:../user/source/DLT698.c ****     {
1592:../user/source/DLT698.c ****         Ptr += 1;
1593:../user/source/DLT698.c ****         Len += 1; // choice
1594:../user/source/DLT698.c **** 
1595:../user/source/DLT698.c ****         Ptr += 1;
1596:../user/source/DLT698.c ****         Len += 1; // last n
1597:../user/source/DLT698.c **** 
1598:../user/source/DLT698.c ****         if ((Res = dwDlt698MsLen(Ptr, dwRcvLen - Len)) < 0)
1599:../user/source/DLT698.c ****         {
1600:../user/source/DLT698.c ****             return -1;
1601:../user/source/DLT698.c ****         }
1602:../user/source/DLT698.c **** 
1603:../user/source/DLT698.c ****         Ptr += Res; // MS
1604:../user/source/DLT698.c ****         Len += Res;
1605:../user/source/DLT698.c ****     }
1606:../user/source/DLT698.c ****     else
1607:../user/source/DLT698.c ****     {
1608:../user/source/DLT698.c ****         return -1;
1609:../user/source/DLT698.c ****     }
1610:../user/source/DLT698.c **** 
1611:../user/source/DLT698.c ****     if (Len > dwRcvLen)
1612:../user/source/DLT698.c ****     {
1613:../user/source/DLT698.c ****         return -1;
1614:../user/source/DLT698.c ****     }
1615:../user/source/DLT698.c **** 
1616:../user/source/DLT698.c ****     return Len;
1617:../user/source/DLT698.c **** }
1618:../user/source/DLT698.c **** 
1619:../user/source/DLT698.c **** /**
1620:../user/source/DLT698.c ****   ************************************************************************
1621:../user/source/DLT698.c ****   * @brief    : count MS length in the ucRcvBuf
1622:../user/source/DLT698.c ****   * @param    : ucRcvBuf : source code (do not contain data identifier)
1623:../user/source/DLT698.c ****   *             dwRcvLen : valid length of source code
1624:../user/source/DLT698.c ****   * @return   : -1   : error    
1625:../user/source/DLT698.c ****                 else : data length of MS in the source code
1626:../user/source/DLT698.c ****   * @author   : Lixg
ARM GAS  C:\Users\strag\AppData\Local\Temp\cc3UPhIa.s 			page 30


1627:../user/source/DLT698.c ****   * @version  : 0.1
1628:../user/source/DLT698.c ****   * @date     : 2017-7-21 13:37:37
1629:../user/source/DLT698.c ****   * @modify   : 
1630:../user/source/DLT698.c ****   * @see also : 
1631:../user/source/DLT698.c ****   ************************************************************************
1632:../user/source/DLT698.c ****   * @attention
1633:../user/source/DLT698.c ****   ************************************************************************
1634:../user/source/DLT698.c ****   */
1635:../user/source/DLT698.c **** int dwDlt698MsLen(UINT8 *ucRcvBuf, int dwRcvLen)
1636:../user/source/DLT698.c **** {
  29              		.loc 1 1636 0
  30              		.cfi_startproc
  31              		@ args = 0, pretend = 0, frame = 0
  32              		@ frame_needed = 0, uses_anonymous_args = 0
  33              	.LVL0:
  34 0000 2DE9F041 		push	{r4, r5, r6, r7, r8, lr}
  35              	.LCFI0:
  36              		.cfi_def_cfa_offset 24
  37              		.cfi_offset 4, -24
  38              		.cfi_offset 5, -20
  39              		.cfi_offset 6, -16
  40              		.cfi_offset 7, -12
  41              		.cfi_offset 8, -8
  42              		.cfi_offset 14, -4
  43 0004 0D46     		mov	r5, r1
  44              	.LVL1:
1637:../user/source/DLT698.c ****     assert(ucRcvBuf);
1638:../user/source/DLT698.c **** 
1639:../user/source/DLT698.c ****     UINT16 Len = 0;
1640:../user/source/DLT698.c ****     UINT8 *Ptr = ucRcvBuf;
1641:../user/source/DLT698.c **** 
1642:../user/source/DLT698.c ****     int i = 0, Res = 0, varLen = 0, varLenB = 0, LenBytes = 0; // 可变长度
1643:../user/source/DLT698.c **** 
1644:../user/source/DLT698.c ****     if (*Ptr == 0)
  45              		.loc 1 1644 0
  46 0006 0378     		ldrb	r3, [r0]	@ zero_extendqisi2
  47 0008 002B     		cmp	r3, #0
  48 000a 00F00C81 		beq	.L40
1645:../user/source/DLT698.c ****     {
1646:../user/source/DLT698.c ****         Ptr += 1;
1647:../user/source/DLT698.c ****         Len += 1; // choice - no meter
1648:../user/source/DLT698.c ****     }
1649:../user/source/DLT698.c ****     else if (*Ptr == 1)
  49              		.loc 1 1649 0
  50 000e 012B     		cmp	r3, #1
  51 0010 00F00B81 		beq	.L41
1650:../user/source/DLT698.c ****     {
1651:../user/source/DLT698.c ****         Ptr += 1;
1652:../user/source/DLT698.c ****         Len += 1; // choice - all meter
1653:../user/source/DLT698.c ****     }
1654:../user/source/DLT698.c ****     else if (*Ptr == 2)
  52              		.loc 1 1654 0
  53 0014 022B     		cmp	r3, #2
  54 0016 2FD1     		bne	.L3
  55              	.LVL2:
  56              	.LBB46:
  57              	.LBB47:
ARM GAS  C:\Users\strag\AppData\Local\Temp\cc3UPhIa.s 			page 31


 287:../user/source/DLT698.c ****     {
  58              		.loc 1 287 0
  59 0018 4178     		ldrb	r1, [r0, #1]	@ zero_extendqisi2
  60              	.LVL3:
  61 001a 11F0800F 		tst	r1, #128
  62 001e 01D1     		bne	.L4
  63              	.LVL4:
 289:../user/source/DLT698.c ****         return ucRcvBuf[0];
  64              		.loc 1 289 0
  65 0020 0123     		movs	r3, #1
  66 0022 1DE0     		b	.L5
  67              	.LVL5:
  68              	.L4:
 293:../user/source/DLT698.c **** 
  69              		.loc 1 293 0
  70 0024 01F07F01 		and	r1, r1, #127
  71              	.LVL6:
 295:../user/source/DLT698.c ****     {
  72              		.loc 1 295 0
  73 0028 0129     		cmp	r1, #1
  74 002a 02D1     		bne	.L6
  75              	.LVL7:
 298:../user/source/DLT698.c ****     }
  76              		.loc 1 298 0
  77 002c 8178     		ldrb	r1, [r0, #2]	@ zero_extendqisi2
  78              	.LVL8:
 297:../user/source/DLT698.c ****         return (ucRcvBuf[1]);
  79              		.loc 1 297 0
  80 002e 0223     		movs	r3, #2
  81 0030 16E0     		b	.L5
  82              	.LVL9:
  83              	.L6:
 300:../user/source/DLT698.c ****     {
  84              		.loc 1 300 0
  85 0032 0229     		cmp	r1, #2
  86 0034 05D1     		bne	.L7
  87              	.LVL10:
 303:../user/source/DLT698.c ****     }
  88              		.loc 1 303 0
  89 0036 8178     		ldrb	r1, [r0, #2]	@ zero_extendqisi2
  90              	.LVL11:
  91 0038 C378     		ldrb	r3, [r0, #3]	@ zero_extendqisi2
  92 003a 43EA0121 		orr	r1, r3, r1, lsl #8
 302:../user/source/DLT698.c ****         return ((ucRcvBuf[1] << 8) | (ucRcvBuf[2]));
  93              		.loc 1 302 0
  94 003e 0323     		movs	r3, #3
  95 0040 0EE0     		b	.L5
  96              	.LVL12:
  97              	.L7:
 305:../user/source/DLT698.c ****     {
  98              		.loc 1 305 0
  99 0042 0329     		cmp	r1, #3
 100 0044 03D1     		bne	.L8
 101              	.LVL13:
 308:../user/source/DLT698.c ****                 (ucRcvBuf[2] << 8) & (ucRcvBuf[3]));
 102              		.loc 1 308 0
 103 0046 8178     		ldrb	r1, [r0, #2]	@ zero_extendqisi2
ARM GAS  C:\Users\strag\AppData\Local\Temp\cc3UPhIa.s 			page 32


 104              	.LVL14:
 105 0048 0904     		lsls	r1, r1, #16
 307:../user/source/DLT698.c ****         return ((ucRcvBuf[1] << 16) |
 106              		.loc 1 307 0
 107 004a 0423     		movs	r3, #4
 108 004c 08E0     		b	.L5
 109              	.LVL15:
 110              	.L8:
 311:../user/source/DLT698.c ****     {
 111              		.loc 1 311 0
 112 004e 0429     		cmp	r1, #4
 113 0050 03D1     		bne	.L42
 114              	.LVL16:
 314:../user/source/DLT698.c ****                 (ucRcvBuf[2] << 16) & (ucRcvBuf[3] << 8) & (ucRcvBuf[4]));
 115              		.loc 1 314 0
 116 0052 8178     		ldrb	r1, [r0, #2]	@ zero_extendqisi2
 117              	.LVL17:
 118 0054 0906     		lsls	r1, r1, #24
 313:../user/source/DLT698.c ****         return ((ucRcvBuf[1] << 24) |
 119              		.loc 1 313 0
 120 0056 0523     		movs	r3, #5
 121 0058 02E0     		b	.L5
 122              	.LVL18:
 123              	.L42:
 124              	.LBE47:
 125              	.LBE46:
1642:../user/source/DLT698.c **** 
 126              		.loc 1 1642 0
 127 005a 0023     		movs	r3, #0
 128              	.LBB49:
 129              	.LBB48:
 318:../user/source/DLT698.c **** }
 130              		.loc 1 318 0
 131 005c 4FF0FF31 		mov	r1, #-1
 132              	.LVL19:
 133              	.L5:
 134              	.LBE48:
 135              	.LBE49:
1655:../user/source/DLT698.c ****     {
1656:../user/source/DLT698.c ****         Ptr += 1;
1657:../user/source/DLT698.c ****         Len += 1; // choice - sequence of user type
1658:../user/source/DLT698.c **** 
1659:../user/source/DLT698.c ****         // number of user type
1660:../user/source/DLT698.c ****         if ((varLen = dwDlt698Len(Ptr, &LenBytes)) < 0)
 136              		.loc 1 1660 0
 137 0060 0029     		cmp	r1, #0
 138 0062 C0F2EA80 		blt	.L43
1661:../user/source/DLT698.c ****         {
1662:../user/source/DLT698.c ****             return -1;
1663:../user/source/DLT698.c ****         }
1664:../user/source/DLT698.c **** 
1665:../user/source/DLT698.c ****         Len += LenBytes;
 139              		.loc 1 1665 0
 140 0066 0133     		adds	r3, r3, #1
 141              	.LVL20:
1666:../user/source/DLT698.c ****         Ptr += LenBytes;
1667:../user/source/DLT698.c **** 
ARM GAS  C:\Users\strag\AppData\Local\Temp\cc3UPhIa.s 			page 33


1668:../user/source/DLT698.c ****         for (i = 0; i < varLen; i++)
 142              		.loc 1 1668 0
 143 0068 0022     		movs	r2, #0
 144 006a 02E0     		b	.L10
 145              	.LVL21:
 146              	.L11:
1669:../user/source/DLT698.c ****         {
1670:../user/source/DLT698.c ****             Len += 1;
 147              		.loc 1 1670 0 discriminator 3
 148 006c 0133     		adds	r3, r3, #1
 149              	.LVL22:
 150 006e 9BB2     		uxth	r3, r3
 151              	.LVL23:
1668:../user/source/DLT698.c ****         {
 152              		.loc 1 1668 0 discriminator 3
 153 0070 0132     		adds	r2, r2, #1
 154              	.LVL24:
 155              	.L10:
1668:../user/source/DLT698.c ****         {
 156              		.loc 1 1668 0 is_stmt 0 discriminator 1
 157 0072 8A42     		cmp	r2, r1
 158 0074 FADB     		blt	.L11
 159 0076 D9E0     		b	.L2
 160              	.LVL25:
 161              	.L3:
1671:../user/source/DLT698.c ****             Ptr += 1;
1672:../user/source/DLT698.c ****         }
1673:../user/source/DLT698.c ****     }
1674:../user/source/DLT698.c ****     else if (*Ptr == 3)
 162              		.loc 1 1674 0 is_stmt 1
 163 0078 032B     		cmp	r3, #3
 164 007a 5AD1     		bne	.L12
 165              	.LVL26:
 166              	.LBB50:
 167              	.LBB51:
 287:../user/source/DLT698.c ****     {
 168              		.loc 1 287 0
 169 007c 4678     		ldrb	r6, [r0, #1]	@ zero_extendqisi2
 170 007e 16F0800F 		tst	r6, #128
 171 0082 01D1     		bne	.L13
 172              	.LVL27:
 289:../user/source/DLT698.c ****         return ucRcvBuf[0];
 173              		.loc 1 289 0
 174 0084 0121     		movs	r1, #1
 175              	.LVL28:
 176 0086 1DE0     		b	.L14
 177              	.LVL29:
 178              	.L13:
 293:../user/source/DLT698.c **** 
 179              		.loc 1 293 0
 180 0088 06F07F06 		and	r6, r6, #127
 181              	.LVL30:
 295:../user/source/DLT698.c ****     {
 182              		.loc 1 295 0
 183 008c 012E     		cmp	r6, #1
 184 008e 02D1     		bne	.L15
 185              	.LVL31:
ARM GAS  C:\Users\strag\AppData\Local\Temp\cc3UPhIa.s 			page 34


 298:../user/source/DLT698.c ****     }
 186              		.loc 1 298 0
 187 0090 8678     		ldrb	r6, [r0, #2]	@ zero_extendqisi2
 188              	.LVL32:
 297:../user/source/DLT698.c ****         return (ucRcvBuf[1]);
 189              		.loc 1 297 0
 190 0092 0221     		movs	r1, #2
 191              	.LVL33:
 192 0094 16E0     		b	.L14
 193              	.LVL34:
 194              	.L15:
 300:../user/source/DLT698.c ****     {
 195              		.loc 1 300 0
 196 0096 022E     		cmp	r6, #2
 197 0098 05D1     		bne	.L16
 198              	.LVL35:
 303:../user/source/DLT698.c ****     }
 199              		.loc 1 303 0
 200 009a 8678     		ldrb	r6, [r0, #2]	@ zero_extendqisi2
 201              	.LVL36:
 202 009c C378     		ldrb	r3, [r0, #3]	@ zero_extendqisi2
 203 009e 43EA0626 		orr	r6, r3, r6, lsl #8
 302:../user/source/DLT698.c ****         return ((ucRcvBuf[1] << 8) | (ucRcvBuf[2]));
 204              		.loc 1 302 0
 205 00a2 0321     		movs	r1, #3
 206              	.LVL37:
 207 00a4 0EE0     		b	.L14
 208              	.LVL38:
 209              	.L16:
 305:../user/source/DLT698.c ****     {
 210              		.loc 1 305 0
 211 00a6 032E     		cmp	r6, #3
 212 00a8 03D1     		bne	.L17
 213              	.LVL39:
 308:../user/source/DLT698.c ****                 (ucRcvBuf[2] << 8) & (ucRcvBuf[3]));
 214              		.loc 1 308 0
 215 00aa 8678     		ldrb	r6, [r0, #2]	@ zero_extendqisi2
 216              	.LVL40:
 217 00ac 3604     		lsls	r6, r6, #16
 307:../user/source/DLT698.c ****         return ((ucRcvBuf[1] << 16) |
 218              		.loc 1 307 0
 219 00ae 0421     		movs	r1, #4
 220              	.LVL41:
 221 00b0 08E0     		b	.L14
 222              	.LVL42:
 223              	.L17:
 311:../user/source/DLT698.c ****     {
 224              		.loc 1 311 0
 225 00b2 042E     		cmp	r6, #4
 226 00b4 03D1     		bne	.L44
 227              	.LVL43:
 314:../user/source/DLT698.c ****                 (ucRcvBuf[2] << 16) & (ucRcvBuf[3] << 8) & (ucRcvBuf[4]));
 228              		.loc 1 314 0
 229 00b6 8678     		ldrb	r6, [r0, #2]	@ zero_extendqisi2
 230              	.LVL44:
 231 00b8 3606     		lsls	r6, r6, #24
 313:../user/source/DLT698.c ****         return ((ucRcvBuf[1] << 24) |
ARM GAS  C:\Users\strag\AppData\Local\Temp\cc3UPhIa.s 			page 35


 232              		.loc 1 313 0
 233 00ba 0521     		movs	r1, #5
 234              	.LVL45:
 235 00bc 02E0     		b	.L14
 236              	.LVL46:
 237              	.L44:
 238              	.LBE51:
 239              	.LBE50:
1642:../user/source/DLT698.c **** 
 240              		.loc 1 1642 0
 241 00be 0021     		movs	r1, #0
 242              	.LVL47:
 243              	.LBB53:
 244              	.LBB52:
 318:../user/source/DLT698.c **** }
 245              		.loc 1 318 0
 246 00c0 4FF0FF36 		mov	r6, #-1
 247              	.LVL48:
 248              	.L14:
 249              	.LBE52:
 250              	.LBE53:
1675:../user/source/DLT698.c ****     {
1676:../user/source/DLT698.c ****         Ptr += 1;
1677:../user/source/DLT698.c ****         Len += 1; // choice - sequence of tsa
1678:../user/source/DLT698.c **** 
1679:../user/source/DLT698.c ****         // number of user type
1680:../user/source/DLT698.c ****         if ((varLen = dwDlt698Len(Ptr, &LenBytes)) < 0)
 251              		.loc 1 1680 0
 252 00c4 002E     		cmp	r6, #0
 253 00c6 C0F2BC80 		blt	.L45
1681:../user/source/DLT698.c ****         {
1682:../user/source/DLT698.c ****             return -1;
1683:../user/source/DLT698.c ****         }
1684:../user/source/DLT698.c **** 
1685:../user/source/DLT698.c ****         Len += LenBytes;
 254              		.loc 1 1685 0
 255 00ca 4B1C     		adds	r3, r1, #1
 256              	.LVL49:
1686:../user/source/DLT698.c ****         Ptr += LenBytes;
 257              		.loc 1 1686 0
 258 00cc 1844     		add	r0, r0, r3
 259              	.LVL50:
1687:../user/source/DLT698.c **** 
1688:../user/source/DLT698.c ****         for (i = 0; i < varLen; i++)
 260              		.loc 1 1688 0
 261 00ce 0024     		movs	r4, #0
 262 00d0 2CE0     		b	.L18
 263              	.LVL51:
 264              	.L24:
 265              	.LBB54:
 266              	.LBB55:
 287:../user/source/DLT698.c ****     {
 267              		.loc 1 287 0
 268 00d2 0278     		ldrb	r2, [r0]	@ zero_extendqisi2
 269 00d4 12F0800F 		tst	r2, #128
 270 00d8 01D1     		bne	.L19
 271              	.LVL52:
ARM GAS  C:\Users\strag\AppData\Local\Temp\cc3UPhIa.s 			page 36


 289:../user/source/DLT698.c ****         return ucRcvBuf[0];
 272              		.loc 1 289 0
 273 00da 0121     		movs	r1, #1
 274 00dc 1CE0     		b	.L20
 275              	.LVL53:
 276              	.L19:
 293:../user/source/DLT698.c **** 
 277              		.loc 1 293 0
 278 00de 02F07F02 		and	r2, r2, #127
 279              	.LVL54:
 295:../user/source/DLT698.c ****     {
 280              		.loc 1 295 0
 281 00e2 012A     		cmp	r2, #1
 282 00e4 02D1     		bne	.L21
 283              	.LVL55:
 298:../user/source/DLT698.c ****     }
 284              		.loc 1 298 0
 285 00e6 4278     		ldrb	r2, [r0, #1]	@ zero_extendqisi2
 286              	.LVL56:
 297:../user/source/DLT698.c ****         return (ucRcvBuf[1]);
 287              		.loc 1 297 0
 288 00e8 0221     		movs	r1, #2
 289 00ea 15E0     		b	.L20
 290              	.LVL57:
 291              	.L21:
 300:../user/source/DLT698.c ****     {
 292              		.loc 1 300 0
 293 00ec 022A     		cmp	r2, #2
 294 00ee 05D1     		bne	.L22
 295              	.LVL58:
 303:../user/source/DLT698.c ****     }
 296              		.loc 1 303 0
 297 00f0 4178     		ldrb	r1, [r0, #1]	@ zero_extendqisi2
 298 00f2 8278     		ldrb	r2, [r0, #2]	@ zero_extendqisi2
 299              	.LVL59:
 300 00f4 42EA0122 		orr	r2, r2, r1, lsl #8
 302:../user/source/DLT698.c ****         return ((ucRcvBuf[1] << 8) | (ucRcvBuf[2]));
 301              		.loc 1 302 0
 302 00f8 0321     		movs	r1, #3
 303 00fa 0DE0     		b	.L20
 304              	.LVL60:
 305              	.L22:
 305:../user/source/DLT698.c ****     {
 306              		.loc 1 305 0
 307 00fc 032A     		cmp	r2, #3
 308 00fe 03D1     		bne	.L23
 309              	.LVL61:
 308:../user/source/DLT698.c ****                 (ucRcvBuf[2] << 8) & (ucRcvBuf[3]));
 310              		.loc 1 308 0
 311 0100 4278     		ldrb	r2, [r0, #1]	@ zero_extendqisi2
 312              	.LVL62:
 313 0102 1204     		lsls	r2, r2, #16
 307:../user/source/DLT698.c ****         return ((ucRcvBuf[1] << 16) |
 314              		.loc 1 307 0
 315 0104 0421     		movs	r1, #4
 316 0106 07E0     		b	.L20
 317              	.LVL63:
ARM GAS  C:\Users\strag\AppData\Local\Temp\cc3UPhIa.s 			page 37


 318              	.L23:
 311:../user/source/DLT698.c ****     {
 319              		.loc 1 311 0
 320 0108 042A     		cmp	r2, #4
 321 010a 03D1     		bne	.L46
 322              	.LVL64:
 314:../user/source/DLT698.c ****                 (ucRcvBuf[2] << 16) & (ucRcvBuf[3] << 8) & (ucRcvBuf[4]));
 323              		.loc 1 314 0
 324 010c 4278     		ldrb	r2, [r0, #1]	@ zero_extendqisi2
 325              	.LVL65:
 326 010e 1206     		lsls	r2, r2, #24
 313:../user/source/DLT698.c ****         return ((ucRcvBuf[1] << 24) |
 327              		.loc 1 313 0
 328 0110 0521     		movs	r1, #5
 329 0112 01E0     		b	.L20
 330              	.LVL66:
 331              	.L46:
 318:../user/source/DLT698.c **** }
 332              		.loc 1 318 0
 333 0114 4FF0FF32 		mov	r2, #-1
 334              	.LVL67:
 335              	.L20:
 336              	.LBE55:
 337              	.LBE54:
1689:../user/source/DLT698.c ****         {
1690:../user/source/DLT698.c ****             if ((varLenB = dwDlt698Len(Ptr, &LenBytes)) < 0)
 338              		.loc 1 1690 0
 339 0118 002A     		cmp	r2, #0
 340 011a C0F29680 		blt	.L47
1691:../user/source/DLT698.c ****             {
1692:../user/source/DLT698.c ****                 return -1;
1693:../user/source/DLT698.c ****             }
1694:../user/source/DLT698.c **** 
1695:../user/source/DLT698.c ****             Len += LenBytes;
 341              		.loc 1 1695 0 discriminator 2
 342 011e 0B44     		add	r3, r3, r1
 343              	.LVL68:
1696:../user/source/DLT698.c ****             Ptr += LenBytes;
1697:../user/source/DLT698.c **** 
1698:../user/source/DLT698.c ****             /* data contents */
1699:../user/source/DLT698.c ****             Ptr += varLenB;
 344              		.loc 1 1699 0 discriminator 2
 345 0120 8F18     		adds	r7, r1, r2
 346 0122 3844     		add	r0, r0, r7
 347              	.LVL69:
1700:../user/source/DLT698.c ****             Len += varLenB;
 348              		.loc 1 1700 0 discriminator 2
 349 0124 12FA83F3 		uxtah	r3, r2, r3
 350              	.LVL70:
 351 0128 9BB2     		uxth	r3, r3
 352              	.LVL71:
1688:../user/source/DLT698.c ****         {
 353              		.loc 1 1688 0 discriminator 2
 354 012a 0134     		adds	r4, r4, #1
 355              	.LVL72:
 356              	.L18:
1688:../user/source/DLT698.c ****         {
ARM GAS  C:\Users\strag\AppData\Local\Temp\cc3UPhIa.s 			page 38


 357              		.loc 1 1688 0 is_stmt 0 discriminator 1
 358 012c B442     		cmp	r4, r6
 359 012e D0DB     		blt	.L24
 360 0130 7CE0     		b	.L2
 361              	.LVL73:
 362              	.L12:
1701:../user/source/DLT698.c ****         }
1702:../user/source/DLT698.c ****     }
1703:../user/source/DLT698.c ****     else if (*Ptr == 4)
 363              		.loc 1 1703 0 is_stmt 1
 364 0132 042B     		cmp	r3, #4
 365 0134 2ED1     		bne	.L25
 366              	.LVL74:
 367              	.LBB56:
 368              	.LBB57:
 287:../user/source/DLT698.c ****     {
 369              		.loc 1 287 0
 370 0136 4178     		ldrb	r1, [r0, #1]	@ zero_extendqisi2
 371              	.LVL75:
 372 0138 11F0800F 		tst	r1, #128
 373 013c 01D1     		bne	.L26
 374              	.LVL76:
 289:../user/source/DLT698.c ****         return ucRcvBuf[0];
 375              		.loc 1 289 0
 376 013e 0123     		movs	r3, #1
 377 0140 1DE0     		b	.L27
 378              	.LVL77:
 379              	.L26:
 293:../user/source/DLT698.c **** 
 380              		.loc 1 293 0
 381 0142 01F07F01 		and	r1, r1, #127
 382              	.LVL78:
 295:../user/source/DLT698.c ****     {
 383              		.loc 1 295 0
 384 0146 0129     		cmp	r1, #1
 385 0148 02D1     		bne	.L28
 386              	.LVL79:
 298:../user/source/DLT698.c ****     }
 387              		.loc 1 298 0
 388 014a 8178     		ldrb	r1, [r0, #2]	@ zero_extendqisi2
 389              	.LVL80:
 297:../user/source/DLT698.c ****         return (ucRcvBuf[1]);
 390              		.loc 1 297 0
 391 014c 0223     		movs	r3, #2
 392 014e 16E0     		b	.L27
 393              	.LVL81:
 394              	.L28:
 300:../user/source/DLT698.c ****     {
 395              		.loc 1 300 0
 396 0150 0229     		cmp	r1, #2
 397 0152 05D1     		bne	.L29
 398              	.LVL82:
 303:../user/source/DLT698.c ****     }
 399              		.loc 1 303 0
 400 0154 8178     		ldrb	r1, [r0, #2]	@ zero_extendqisi2
 401              	.LVL83:
 402 0156 C378     		ldrb	r3, [r0, #3]	@ zero_extendqisi2
ARM GAS  C:\Users\strag\AppData\Local\Temp\cc3UPhIa.s 			page 39


 403 0158 43EA0121 		orr	r1, r3, r1, lsl #8
 302:../user/source/DLT698.c ****         return ((ucRcvBuf[1] << 8) | (ucRcvBuf[2]));
 404              		.loc 1 302 0
 405 015c 0323     		movs	r3, #3
 406 015e 0EE0     		b	.L27
 407              	.LVL84:
 408              	.L29:
 305:../user/source/DLT698.c ****     {
 409              		.loc 1 305 0
 410 0160 0329     		cmp	r1, #3
 411 0162 03D1     		bne	.L30
 412              	.LVL85:
 308:../user/source/DLT698.c ****                 (ucRcvBuf[2] << 8) & (ucRcvBuf[3]));
 413              		.loc 1 308 0
 414 0164 8178     		ldrb	r1, [r0, #2]	@ zero_extendqisi2
 415              	.LVL86:
 416 0166 0904     		lsls	r1, r1, #16
 307:../user/source/DLT698.c ****         return ((ucRcvBuf[1] << 16) |
 417              		.loc 1 307 0
 418 0168 0423     		movs	r3, #4
 419 016a 08E0     		b	.L27
 420              	.LVL87:
 421              	.L30:
 311:../user/source/DLT698.c ****     {
 422              		.loc 1 311 0
 423 016c 0429     		cmp	r1, #4
 424 016e 03D1     		bne	.L48
 425              	.LVL88:
 314:../user/source/DLT698.c ****                 (ucRcvBuf[2] << 16) & (ucRcvBuf[3] << 8) & (ucRcvBuf[4]));
 426              		.loc 1 314 0
 427 0170 8178     		ldrb	r1, [r0, #2]	@ zero_extendqisi2
 428              	.LVL89:
 429 0172 0906     		lsls	r1, r1, #24
 313:../user/source/DLT698.c ****         return ((ucRcvBuf[1] << 24) |
 430              		.loc 1 313 0
 431 0174 0523     		movs	r3, #5
 432 0176 02E0     		b	.L27
 433              	.LVL90:
 434              	.L48:
 435              	.LBE57:
 436              	.LBE56:
1642:../user/source/DLT698.c **** 
 437              		.loc 1 1642 0
 438 0178 0023     		movs	r3, #0
 439              	.LBB59:
 440              	.LBB58:
 318:../user/source/DLT698.c **** }
 441              		.loc 1 318 0
 442 017a 4FF0FF31 		mov	r1, #-1
 443              	.LVL91:
 444              	.L27:
 445              	.LBE58:
 446              	.LBE59:
1704:../user/source/DLT698.c ****     {
1705:../user/source/DLT698.c ****         Ptr += 1;
1706:../user/source/DLT698.c ****         Len += 1; // choice - sequence of configno
1707:../user/source/DLT698.c **** 
ARM GAS  C:\Users\strag\AppData\Local\Temp\cc3UPhIa.s 			page 40


1708:../user/source/DLT698.c ****         // number of user type
1709:../user/source/DLT698.c ****         if ((varLen = dwDlt698Len(Ptr, &LenBytes)) < 0)
 447              		.loc 1 1709 0
 448 017e 0029     		cmp	r1, #0
 449 0180 67DB     		blt	.L49
1710:../user/source/DLT698.c ****         {
1711:../user/source/DLT698.c ****             return -1;
1712:../user/source/DLT698.c ****         }
1713:../user/source/DLT698.c **** 
1714:../user/source/DLT698.c ****         Len += LenBytes;
 450              		.loc 1 1714 0
 451 0182 0133     		adds	r3, r3, #1
 452              	.LVL92:
1715:../user/source/DLT698.c ****         Ptr += LenBytes;
1716:../user/source/DLT698.c **** 
1717:../user/source/DLT698.c ****         for (i = 0; i < varLen; i++)
 453              		.loc 1 1717 0
 454 0184 0022     		movs	r2, #0
 455 0186 02E0     		b	.L31
 456              	.LVL93:
 457              	.L32:
1718:../user/source/DLT698.c ****         {
1719:../user/source/DLT698.c ****             Len += 2;
 458              		.loc 1 1719 0 discriminator 3
 459 0188 0233     		adds	r3, r3, #2
 460              	.LVL94:
 461 018a 9BB2     		uxth	r3, r3
 462              	.LVL95:
1717:../user/source/DLT698.c ****         {
 463              		.loc 1 1717 0 discriminator 3
 464 018c 0132     		adds	r2, r2, #1
 465              	.LVL96:
 466              	.L31:
1717:../user/source/DLT698.c ****         {
 467              		.loc 1 1717 0 is_stmt 0 discriminator 1
 468 018e 8A42     		cmp	r2, r1
 469 0190 FADB     		blt	.L32
 470 0192 4BE0     		b	.L2
 471              	.LVL97:
 472              	.L25:
1720:../user/source/DLT698.c ****             Ptr += 2;
1721:../user/source/DLT698.c ****         }
1722:../user/source/DLT698.c ****     }
1723:../user/source/DLT698.c ****     else if (*Ptr == 5 || *Ptr == 6 || *Ptr == 7)
 473              		.loc 1 1723 0 is_stmt 1
 474 0194 053B     		subs	r3, r3, #5
 475 0196 DBB2     		uxtb	r3, r3
 476 0198 022B     		cmp	r3, #2
 477 019a 5ED8     		bhi	.L50
 478              	.LVL98:
 479              	.LBB60:
 480              	.LBB61:
 287:../user/source/DLT698.c ****     {
 481              		.loc 1 287 0
 482 019c 4678     		ldrb	r6, [r0, #1]	@ zero_extendqisi2
 483 019e 16F0800F 		tst	r6, #128
 484 01a2 01D1     		bne	.L33
ARM GAS  C:\Users\strag\AppData\Local\Temp\cc3UPhIa.s 			page 41


 485              	.LVL99:
 289:../user/source/DLT698.c ****         return ucRcvBuf[0];
 486              		.loc 1 289 0
 487 01a4 0122     		movs	r2, #1
 488 01a6 1DE0     		b	.L34
 489              	.LVL100:
 490              	.L33:
 293:../user/source/DLT698.c **** 
 491              		.loc 1 293 0
 492 01a8 06F07F06 		and	r6, r6, #127
 493              	.LVL101:
 295:../user/source/DLT698.c ****     {
 494              		.loc 1 295 0
 495 01ac 012E     		cmp	r6, #1
 496 01ae 02D1     		bne	.L35
 497              	.LVL102:
 298:../user/source/DLT698.c ****     }
 498              		.loc 1 298 0
 499 01b0 8678     		ldrb	r6, [r0, #2]	@ zero_extendqisi2
 500              	.LVL103:
 297:../user/source/DLT698.c ****         return (ucRcvBuf[1]);
 501              		.loc 1 297 0
 502 01b2 0222     		movs	r2, #2
 503 01b4 16E0     		b	.L34
 504              	.LVL104:
 505              	.L35:
 300:../user/source/DLT698.c ****     {
 506              		.loc 1 300 0
 507 01b6 022E     		cmp	r6, #2
 508 01b8 05D1     		bne	.L36
 509              	.LVL105:
 303:../user/source/DLT698.c ****     }
 510              		.loc 1 303 0
 511 01ba 8678     		ldrb	r6, [r0, #2]	@ zero_extendqisi2
 512              	.LVL106:
 513 01bc C378     		ldrb	r3, [r0, #3]	@ zero_extendqisi2
 514 01be 43EA0626 		orr	r6, r3, r6, lsl #8
 302:../user/source/DLT698.c ****         return ((ucRcvBuf[1] << 8) | (ucRcvBuf[2]));
 515              		.loc 1 302 0
 516 01c2 0322     		movs	r2, #3
 517 01c4 0EE0     		b	.L34
 518              	.LVL107:
 519              	.L36:
 305:../user/source/DLT698.c ****     {
 520              		.loc 1 305 0
 521 01c6 032E     		cmp	r6, #3
 522 01c8 03D1     		bne	.L37
 523              	.LVL108:
 308:../user/source/DLT698.c ****                 (ucRcvBuf[2] << 8) & (ucRcvBuf[3]));
 524              		.loc 1 308 0
 525 01ca 8678     		ldrb	r6, [r0, #2]	@ zero_extendqisi2
 526              	.LVL109:
 527 01cc 3604     		lsls	r6, r6, #16
 307:../user/source/DLT698.c ****         return ((ucRcvBuf[1] << 16) |
 528              		.loc 1 307 0
 529 01ce 0422     		movs	r2, #4
 530 01d0 08E0     		b	.L34
ARM GAS  C:\Users\strag\AppData\Local\Temp\cc3UPhIa.s 			page 42


 531              	.LVL110:
 532              	.L37:
 311:../user/source/DLT698.c ****     {
 533              		.loc 1 311 0
 534 01d2 042E     		cmp	r6, #4
 535 01d4 03D1     		bne	.L51
 536              	.LVL111:
 314:../user/source/DLT698.c ****                 (ucRcvBuf[2] << 16) & (ucRcvBuf[3] << 8) & (ucRcvBuf[4]));
 537              		.loc 1 314 0
 538 01d6 8678     		ldrb	r6, [r0, #2]	@ zero_extendqisi2
 539              	.LVL112:
 540 01d8 3606     		lsls	r6, r6, #24
 313:../user/source/DLT698.c ****         return ((ucRcvBuf[1] << 24) |
 541              		.loc 1 313 0
 542 01da 0522     		movs	r2, #5
 543 01dc 02E0     		b	.L34
 544              	.LVL113:
 545              	.L51:
 546              	.LBE61:
 547              	.LBE60:
1642:../user/source/DLT698.c **** 
 548              		.loc 1 1642 0
 549 01de 0022     		movs	r2, #0
 550              	.LBB63:
 551              	.LBB62:
 318:../user/source/DLT698.c **** }
 552              		.loc 1 318 0
 553 01e0 4FF0FF36 		mov	r6, #-1
 554              	.LVL114:
 555              	.L34:
 556              	.LBE62:
 557              	.LBE63:
1724:../user/source/DLT698.c ****     {
1725:../user/source/DLT698.c ****         Ptr += 1;
1726:../user/source/DLT698.c ****         Len += 1; // choice - sequence of region
1727:../user/source/DLT698.c **** 
1728:../user/source/DLT698.c ****         // number of user type
1729:../user/source/DLT698.c ****         if ((varLen = dwDlt698Len(Ptr, &LenBytes)) < 0)
 558              		.loc 1 1729 0
 559 01e4 002E     		cmp	r6, #0
 560 01e6 3CDB     		blt	.L52
1730:../user/source/DLT698.c ****         {
1731:../user/source/DLT698.c ****             return -1;
1732:../user/source/DLT698.c ****         }
1733:../user/source/DLT698.c **** 
1734:../user/source/DLT698.c ****         Len += LenBytes;
 561              		.loc 1 1734 0
 562 01e8 531C     		adds	r3, r2, #1
 563              	.LVL115:
1735:../user/source/DLT698.c ****         Ptr += LenBytes;
 564              		.loc 1 1735 0
 565 01ea C418     		adds	r4, r0, r3
 566              	.LVL116:
1736:../user/source/DLT698.c **** 
1737:../user/source/DLT698.c ****         for (i = 0; i < varLen; i++)
 567              		.loc 1 1737 0
 568 01ec 4FF00008 		mov	r8, #0
ARM GAS  C:\Users\strag\AppData\Local\Temp\cc3UPhIa.s 			page 43


 569 01f0 16E0     		b	.L38
 570              	.LVL117:
 571              	.L39:
1738:../user/source/DLT698.c ****         {
1739:../user/source/DLT698.c ****             Ptr += 1;
 572              		.loc 1 1739 0
 573 01f2 0134     		adds	r4, r4, #1
 574              	.LVL118:
1740:../user/source/DLT698.c ****             Len += 1; // ENUMERATED
 575              		.loc 1 1740 0
 576 01f4 581C     		adds	r0, r3, #1
 577 01f6 87B2     		uxth	r7, r0
 578              	.LVL119:
1741:../user/source/DLT698.c **** 
1742:../user/source/DLT698.c ****             if ((Res = dwDlt698DataLen(Ptr, dwRcvLen - Len)) < 0)
 579              		.loc 1 1742 0
 580 01f8 E91B     		subs	r1, r5, r7
 581 01fa 2046     		mov	r0, r4
 582 01fc FFF7FEFF 		bl	dwDlt698DataLen
 583              	.LVL120:
 584 0200 0028     		cmp	r0, #0
 585 0202 32DB     		blt	.L53
1743:../user/source/DLT698.c ****             { // start data
1744:../user/source/DLT698.c ****                 return -1;
1745:../user/source/DLT698.c ****             }
1746:../user/source/DLT698.c ****             Ptr += Res;
 586              		.loc 1 1746 0
 587 0204 0444     		add	r4, r4, r0
 588              	.LVL121:
1747:../user/source/DLT698.c ****             Len += Res;
 589              		.loc 1 1747 0
 590 0206 3844     		add	r0, r0, r7
 591              	.LVL122:
 592 0208 87B2     		uxth	r7, r0
 593              	.LVL123:
1748:../user/source/DLT698.c **** 
1749:../user/source/DLT698.c ****             if ((Res = dwDlt698DataLen(Ptr, dwRcvLen - Len)) < 0)
 594              		.loc 1 1749 0
 595 020a E91B     		subs	r1, r5, r7
 596 020c 2046     		mov	r0, r4
 597 020e FFF7FEFF 		bl	dwDlt698DataLen
 598              	.LVL124:
 599 0212 0028     		cmp	r0, #0
 600 0214 2DDB     		blt	.L54
1750:../user/source/DLT698.c ****             { // end data
1751:../user/source/DLT698.c ****                 return -1;
1752:../user/source/DLT698.c ****             }
1753:../user/source/DLT698.c ****             Ptr += Res;
 601              		.loc 1 1753 0 discriminator 2
 602 0216 0444     		add	r4, r4, r0
 603              	.LVL125:
1754:../user/source/DLT698.c ****             Len += Res;
 604              		.loc 1 1754 0 discriminator 2
 605 0218 3844     		add	r0, r0, r7
 606              	.LVL126:
 607 021a 83B2     		uxth	r3, r0
 608              	.LVL127:
ARM GAS  C:\Users\strag\AppData\Local\Temp\cc3UPhIa.s 			page 44


1737:../user/source/DLT698.c ****         {
 609              		.loc 1 1737 0 discriminator 2
 610 021c 08F10108 		add	r8, r8, #1
 611              	.LVL128:
 612              	.L38:
1737:../user/source/DLT698.c ****         {
 613              		.loc 1 1737 0 is_stmt 0 discriminator 1
 614 0220 B045     		cmp	r8, r6
 615 0222 E6DB     		blt	.L39
 616 0224 02E0     		b	.L2
 617              	.LVL129:
 618              	.L40:
1647:../user/source/DLT698.c ****     }
 619              		.loc 1 1647 0 is_stmt 1
 620 0226 0123     		movs	r3, #1
 621 0228 00E0     		b	.L2
 622              	.L41:
1652:../user/source/DLT698.c ****     }
 623              		.loc 1 1652 0
 624 022a 0123     		movs	r3, #1
 625              	.LVL130:
 626              	.L2:
1755:../user/source/DLT698.c ****         }
1756:../user/source/DLT698.c ****     }
1757:../user/source/DLT698.c ****     else
1758:../user/source/DLT698.c ****     {
1759:../user/source/DLT698.c ****         return -1;
1760:../user/source/DLT698.c ****     }
1761:../user/source/DLT698.c **** 
1762:../user/source/DLT698.c ****     if (Len > dwRcvLen)
 627              		.loc 1 1762 0
 628 022c 1846     		mov	r0, r3
 629 022e 9D42     		cmp	r5, r3
 630 0230 21DA     		bge	.L9
1763:../user/source/DLT698.c ****     {
1764:../user/source/DLT698.c ****         return -1;
 631              		.loc 1 1764 0
 632 0232 4FF0FF30 		mov	r0, #-1
 633 0236 BDE8F081 		pop	{r4, r5, r6, r7, r8, pc}
 634              	.LVL131:
 635              	.L43:
1662:../user/source/DLT698.c ****         }
 636              		.loc 1 1662 0
 637 023a 4FF0FF30 		mov	r0, #-1
 638              	.LVL132:
 639 023e BDE8F081 		pop	{r4, r5, r6, r7, r8, pc}
 640              	.LVL133:
 641              	.L45:
1682:../user/source/DLT698.c ****         }
 642              		.loc 1 1682 0
 643 0242 4FF0FF30 		mov	r0, #-1
 644              	.LVL134:
 645 0246 BDE8F081 		pop	{r4, r5, r6, r7, r8, pc}
 646              	.LVL135:
 647              	.L47:
1692:../user/source/DLT698.c ****             }
 648              		.loc 1 1692 0
ARM GAS  C:\Users\strag\AppData\Local\Temp\cc3UPhIa.s 			page 45


 649 024a 4FF0FF30 		mov	r0, #-1
 650              	.LVL136:
 651 024e BDE8F081 		pop	{r4, r5, r6, r7, r8, pc}
 652              	.LVL137:
 653              	.L49:
1711:../user/source/DLT698.c ****         }
 654              		.loc 1 1711 0
 655 0252 4FF0FF30 		mov	r0, #-1
 656              	.LVL138:
 657 0256 BDE8F081 		pop	{r4, r5, r6, r7, r8, pc}
 658              	.LVL139:
 659              	.L50:
1759:../user/source/DLT698.c ****     }
 660              		.loc 1 1759 0
 661 025a 4FF0FF30 		mov	r0, #-1
 662              	.LVL140:
 663 025e BDE8F081 		pop	{r4, r5, r6, r7, r8, pc}
 664              	.LVL141:
 665              	.L52:
1731:../user/source/DLT698.c ****         }
 666              		.loc 1 1731 0
 667 0262 4FF0FF30 		mov	r0, #-1
 668              	.LVL142:
 669 0266 BDE8F081 		pop	{r4, r5, r6, r7, r8, pc}
 670              	.LVL143:
 671              	.L53:
1744:../user/source/DLT698.c ****             }
 672              		.loc 1 1744 0
 673 026a 4FF0FF30 		mov	r0, #-1
 674              	.LVL144:
 675 026e BDE8F081 		pop	{r4, r5, r6, r7, r8, pc}
 676              	.LVL145:
 677              	.L54:
1751:../user/source/DLT698.c ****             }
 678              		.loc 1 1751 0
 679 0272 4FF0FF30 		mov	r0, #-1
 680              	.LVL146:
 681              	.L9:
1765:../user/source/DLT698.c ****     }
1766:../user/source/DLT698.c **** 
1767:../user/source/DLT698.c ****     return Len;
1768:../user/source/DLT698.c **** }
 682              		.loc 1 1768 0
 683 0276 BDE8F081 		pop	{r4, r5, r6, r7, r8, pc}
 684              		.cfi_endproc
 685              	.LFE125:
 687 027a 00BF     		.section	.text.dwDlt698DataLen,"ax",%progbits
 688              		.align	2
 689              		.thumb
 690              		.thumb_func
 692              	dwDlt698DataLen:
 693              	.LFB123:
 842:../user/source/DLT698.c ****     assert(ucRcvBuf);
 694              		.loc 1 842 0
 695              		.cfi_startproc
 696              		@ args = 0, pretend = 0, frame = 0
 697              		@ frame_needed = 0, uses_anonymous_args = 0
ARM GAS  C:\Users\strag\AppData\Local\Temp\cc3UPhIa.s 			page 46


 698              	.LVL147:
 699 0000 2DE9F041 		push	{r4, r5, r6, r7, r8, lr}
 700              	.LCFI1:
 701              		.cfi_def_cfa_offset 24
 702              		.cfi_offset 4, -24
 703              		.cfi_offset 5, -20
 704              		.cfi_offset 6, -16
 705              		.cfi_offset 7, -12
 706              		.cfi_offset 8, -8
 707              		.cfi_offset 14, -4
 708 0004 0D46     		mov	r5, r1
 709              	.LVL148:
 851:../user/source/DLT698.c ****     Len++;
 710              		.loc 1 851 0
 711 0006 421C     		adds	r2, r0, #1
 712              	.LVL149:
 854:../user/source/DLT698.c ****     {
 713              		.loc 1 854 0
 714 0008 0378     		ldrb	r3, [r0]	@ zero_extendqisi2
 715 000a 602B     		cmp	r3, #96
 716 000c 00F2B083 		bhi	.L187
 717 0010 DFE813F0 		tbh	[pc, r3, lsl #1]
 718              	.LVL150:
 719              	.L59:
 720 0014 6100     		.2byte	(.L58-.L59)/2
 721 0016 6300     		.2byte	(.L60-.L59)/2
 722 0018 9E00     		.2byte	(.L61-.L59)/2
 723 001a A403     		.2byte	(.L188-.L59)/2
 724 001c D900     		.2byte	(.L63-.L59)/2
 725 001e 1601     		.2byte	(.L64-.L59)/2
 726 0020 1801     		.2byte	(.L65-.L59)/2
 727 0022 AE03     		.2byte	(.L187-.L59)/2
 728 0024 AE03     		.2byte	(.L187-.L59)/2
 729 0026 1A01     		.2byte	(.L66-.L59)/2
 730 0028 4501     		.2byte	(.L67-.L59)/2
 731 002a AE03     		.2byte	(.L187-.L59)/2
 732 002c 7001     		.2byte	(.L68-.L59)/2
 733 002e AE03     		.2byte	(.L187-.L59)/2
 734 0030 AE03     		.2byte	(.L187-.L59)/2
 735 0032 A403     		.2byte	(.L188-.L59)/2
 736 0034 9B01     		.2byte	(.L69-.L59)/2
 737 0036 A403     		.2byte	(.L188-.L59)/2
 738 0038 9D01     		.2byte	(.L70-.L59)/2
 739 003a AE03     		.2byte	(.L187-.L59)/2
 740 003c 9F01     		.2byte	(.L71-.L59)/2
 741 003e A101     		.2byte	(.L72-.L59)/2
 742 0040 A403     		.2byte	(.L188-.L59)/2
 743 0042 A301     		.2byte	(.L73-.L59)/2
 744 0044 A501     		.2byte	(.L74-.L59)/2
 745 0046 A701     		.2byte	(.L75-.L59)/2
 746 0048 A901     		.2byte	(.L76-.L59)/2
 747 004a AB01     		.2byte	(.L77-.L59)/2
 748 004c AD01     		.2byte	(.L78-.L59)/2
 749 004e AE03     		.2byte	(.L187-.L59)/2
 750 0050 AE03     		.2byte	(.L187-.L59)/2
 751 0052 AE03     		.2byte	(.L187-.L59)/2
 752 0054 AE03     		.2byte	(.L187-.L59)/2
ARM GAS  C:\Users\strag\AppData\Local\Temp\cc3UPhIa.s 			page 47


 753 0056 AE03     		.2byte	(.L187-.L59)/2
 754 0058 AE03     		.2byte	(.L187-.L59)/2
 755 005a AE03     		.2byte	(.L187-.L59)/2
 756 005c AE03     		.2byte	(.L187-.L59)/2
 757 005e AE03     		.2byte	(.L187-.L59)/2
 758 0060 AE03     		.2byte	(.L187-.L59)/2
 759 0062 AE03     		.2byte	(.L187-.L59)/2
 760 0064 AE03     		.2byte	(.L187-.L59)/2
 761 0066 AE03     		.2byte	(.L187-.L59)/2
 762 0068 AE03     		.2byte	(.L187-.L59)/2
 763 006a AE03     		.2byte	(.L187-.L59)/2
 764 006c AE03     		.2byte	(.L187-.L59)/2
 765 006e AE03     		.2byte	(.L187-.L59)/2
 766 0070 AE03     		.2byte	(.L187-.L59)/2
 767 0072 AE03     		.2byte	(.L187-.L59)/2
 768 0074 AE03     		.2byte	(.L187-.L59)/2
 769 0076 AE03     		.2byte	(.L187-.L59)/2
 770 0078 AE03     		.2byte	(.L187-.L59)/2
 771 007a AE03     		.2byte	(.L187-.L59)/2
 772 007c AE03     		.2byte	(.L187-.L59)/2
 773 007e AE03     		.2byte	(.L187-.L59)/2
 774 0080 AE03     		.2byte	(.L187-.L59)/2
 775 0082 AE03     		.2byte	(.L187-.L59)/2
 776 0084 AE03     		.2byte	(.L187-.L59)/2
 777 0086 AE03     		.2byte	(.L187-.L59)/2
 778 0088 AE03     		.2byte	(.L187-.L59)/2
 779 008a AE03     		.2byte	(.L187-.L59)/2
 780 008c AE03     		.2byte	(.L187-.L59)/2
 781 008e AE03     		.2byte	(.L187-.L59)/2
 782 0090 AE03     		.2byte	(.L187-.L59)/2
 783 0092 AE03     		.2byte	(.L187-.L59)/2
 784 0094 AE03     		.2byte	(.L187-.L59)/2
 785 0096 AE03     		.2byte	(.L187-.L59)/2
 786 0098 AE03     		.2byte	(.L187-.L59)/2
 787 009a AE03     		.2byte	(.L187-.L59)/2
 788 009c AE03     		.2byte	(.L187-.L59)/2
 789 009e AE03     		.2byte	(.L187-.L59)/2
 790 00a0 AE03     		.2byte	(.L187-.L59)/2
 791 00a2 AE03     		.2byte	(.L187-.L59)/2
 792 00a4 AE03     		.2byte	(.L187-.L59)/2
 793 00a6 AE03     		.2byte	(.L187-.L59)/2
 794 00a8 AE03     		.2byte	(.L187-.L59)/2
 795 00aa AE03     		.2byte	(.L187-.L59)/2
 796 00ac AE03     		.2byte	(.L187-.L59)/2
 797 00ae AE03     		.2byte	(.L187-.L59)/2
 798 00b0 AE03     		.2byte	(.L187-.L59)/2
 799 00b2 AE03     		.2byte	(.L187-.L59)/2
 800 00b4 AF01     		.2byte	(.L79-.L59)/2
 801 00b6 B101     		.2byte	(.L80-.L59)/2
 802 00b8 B301     		.2byte	(.L81-.L59)/2
 803 00ba E301     		.2byte	(.L82-.L59)/2
 804 00bc E501     		.2byte	(.L83-.L59)/2
 805 00be E701     		.2byte	(.L84-.L59)/2
 806 00c0 1202     		.2byte	(.L85-.L59)/2
 807 00c2 1202     		.2byte	(.L85-.L59)/2
 808 00c4 3D02     		.2byte	(.L86-.L59)/2
 809 00c6 5102     		.2byte	(.L87-.L59)/2
ARM GAS  C:\Users\strag\AppData\Local\Temp\cc3UPhIa.s 			page 48


 810 00c8 5302     		.2byte	(.L88-.L59)/2
 811 00ca 5D02     		.2byte	(.L89-.L59)/2
 812 00cc 9702     		.2byte	(.L90-.L59)/2
 813 00ce A102     		.2byte	(.L91-.L59)/2
 814 00d0 CC02     		.2byte	(.L92-.L59)/2
 815 00d2 2403     		.2byte	(.L93-.L59)/2
 816 00d4 2603     		.2byte	(.L94-.L59)/2
 817              		.p2align 1
 818              	.L58:
 852:../user/source/DLT698.c **** 
 819              		.loc 1 852 0
 820 00d6 0124     		movs	r4, #1
 821 00d8 43E3     		b	.L62
 822              	.L60:
 823              	.LVL151:
 824              	.LBB64:
 825              	.LBB65:
 287:../user/source/DLT698.c ****     {
 826              		.loc 1 287 0
 827 00da 4778     		ldrb	r7, [r0, #1]	@ zero_extendqisi2
 828 00dc 17F0800F 		tst	r7, #128
 829 00e0 01D1     		bne	.L95
 830              	.LVL152:
 289:../user/source/DLT698.c ****         return ucRcvBuf[0];
 831              		.loc 1 289 0
 832 00e2 0126     		movs	r6, #1
 833 00e4 1DE0     		b	.L96
 834              	.LVL153:
 835              	.L95:
 293:../user/source/DLT698.c **** 
 836              		.loc 1 293 0
 837 00e6 07F07F07 		and	r7, r7, #127
 838              	.LVL154:
 295:../user/source/DLT698.c ****     {
 839              		.loc 1 295 0
 840 00ea 012F     		cmp	r7, #1
 841 00ec 02D1     		bne	.L97
 842              	.LVL155:
 298:../user/source/DLT698.c ****     }
 843              		.loc 1 298 0
 844 00ee 8778     		ldrb	r7, [r0, #2]	@ zero_extendqisi2
 845              	.LVL156:
 297:../user/source/DLT698.c ****         return (ucRcvBuf[1]);
 846              		.loc 1 297 0
 847 00f0 0226     		movs	r6, #2
 848 00f2 16E0     		b	.L96
 849              	.LVL157:
 850              	.L97:
 300:../user/source/DLT698.c ****     {
 851              		.loc 1 300 0
 852 00f4 022F     		cmp	r7, #2
 853 00f6 05D1     		bne	.L98
 854              	.LVL158:
 303:../user/source/DLT698.c ****     }
 855              		.loc 1 303 0
 856 00f8 8778     		ldrb	r7, [r0, #2]	@ zero_extendqisi2
 857              	.LVL159:
ARM GAS  C:\Users\strag\AppData\Local\Temp\cc3UPhIa.s 			page 49


 858 00fa C378     		ldrb	r3, [r0, #3]	@ zero_extendqisi2
 859 00fc 43EA0727 		orr	r7, r3, r7, lsl #8
 302:../user/source/DLT698.c ****         return ((ucRcvBuf[1] << 8) | (ucRcvBuf[2]));
 860              		.loc 1 302 0
 861 0100 0326     		movs	r6, #3
 862 0102 0EE0     		b	.L96
 863              	.LVL160:
 864              	.L98:
 305:../user/source/DLT698.c ****     {
 865              		.loc 1 305 0
 866 0104 032F     		cmp	r7, #3
 867 0106 03D1     		bne	.L99
 868              	.LVL161:
 308:../user/source/DLT698.c ****                 (ucRcvBuf[2] << 8) & (ucRcvBuf[3]));
 869              		.loc 1 308 0
 870 0108 8778     		ldrb	r7, [r0, #2]	@ zero_extendqisi2
 871              	.LVL162:
 872 010a 3F04     		lsls	r7, r7, #16
 307:../user/source/DLT698.c ****         return ((ucRcvBuf[1] << 16) |
 873              		.loc 1 307 0
 874 010c 0426     		movs	r6, #4
 875 010e 08E0     		b	.L96
 876              	.LVL163:
 877              	.L99:
 311:../user/source/DLT698.c ****     {
 878              		.loc 1 311 0
 879 0110 042F     		cmp	r7, #4
 880 0112 03D1     		bne	.L189
 881              	.LVL164:
 314:../user/source/DLT698.c ****                 (ucRcvBuf[2] << 16) & (ucRcvBuf[3] << 8) & (ucRcvBuf[4]));
 882              		.loc 1 314 0
 883 0114 8778     		ldrb	r7, [r0, #2]	@ zero_extendqisi2
 884              	.LVL165:
 885 0116 3F06     		lsls	r7, r7, #24
 313:../user/source/DLT698.c ****         return ((ucRcvBuf[1] << 24) |
 886              		.loc 1 313 0
 887 0118 0526     		movs	r6, #5
 888 011a 02E0     		b	.L96
 889              	.LVL166:
 890              	.L189:
 891              	.LBE65:
 892              	.LBE64:
 848:../user/source/DLT698.c **** 
 893              		.loc 1 848 0
 894 011c 0026     		movs	r6, #0
 895              	.LBB67:
 896              	.LBB66:
 318:../user/source/DLT698.c **** }
 897              		.loc 1 318 0
 898 011e 4FF0FF37 		mov	r7, #-1
 899              	.LVL167:
 900              	.L96:
 901              	.LBE66:
 902              	.LBE67:
 865:../user/source/DLT698.c ****         {
 903              		.loc 1 865 0
 904 0122 002F     		cmp	r7, #0
ARM GAS  C:\Users\strag\AppData\Local\Temp\cc3UPhIa.s 			page 50


 905 0124 C0F22883 		blt	.L190
 870:../user/source/DLT698.c ****         Ptr += LenBytes;
 906              		.loc 1 870 0
 907 0128 741C     		adds	r4, r6, #1
 908              	.LVL168:
 871:../user/source/DLT698.c **** 
 909              		.loc 1 871 0
 910 012a 1644     		add	r6, r6, r2
 911              	.LVL169:
 874:../user/source/DLT698.c ****         {
 912              		.loc 1 874 0
 913 012c 4FF00008 		mov	r8, #0
 914 0130 0BE0     		b	.L100
 915              	.LVL170:
 916              	.L101:
 876:../user/source/DLT698.c ****             {
 917              		.loc 1 876 0
 918 0132 291B     		subs	r1, r5, r4
 919 0134 3046     		mov	r0, r6
 920 0136 FFF763FF 		bl	dwDlt698DataLen
 921              	.LVL171:
 922 013a 0028     		cmp	r0, #0
 923 013c 40F32083 		ble	.L191
 881:../user/source/DLT698.c ****             Len += Res;
 924              		.loc 1 881 0 discriminator 2
 925 0140 0644     		add	r6, r6, r0
 926              	.LVL172:
 882:../user/source/DLT698.c ****         }
 927              		.loc 1 882 0 discriminator 2
 928 0142 0444     		add	r4, r4, r0
 929              	.LVL173:
 930 0144 A4B2     		uxth	r4, r4
 931              	.LVL174:
 874:../user/source/DLT698.c ****         {
 932              		.loc 1 874 0 discriminator 2
 933 0146 08F10108 		add	r8, r8, #1
 934              	.LVL175:
 935              	.L100:
 874:../user/source/DLT698.c ****         {
 936              		.loc 1 874 0 is_stmt 0 discriminator 1
 937 014a B845     		cmp	r8, r7
 938 014c F1DB     		blt	.L101
 939 014e 08E3     		b	.L62
 940              	.LVL176:
 941              	.L61:
 942              	.LBB68:
 943              	.LBB69:
 287:../user/source/DLT698.c ****     {
 944              		.loc 1 287 0 is_stmt 1
 945 0150 4778     		ldrb	r7, [r0, #1]	@ zero_extendqisi2
 946 0152 17F0800F 		tst	r7, #128
 947 0156 01D1     		bne	.L102
 948              	.LVL177:
 289:../user/source/DLT698.c ****         return ucRcvBuf[0];
 949              		.loc 1 289 0
 950 0158 0126     		movs	r6, #1
 951 015a 1DE0     		b	.L103
ARM GAS  C:\Users\strag\AppData\Local\Temp\cc3UPhIa.s 			page 51


 952              	.LVL178:
 953              	.L102:
 293:../user/source/DLT698.c **** 
 954              		.loc 1 293 0
 955 015c 07F07F07 		and	r7, r7, #127
 956              	.LVL179:
 295:../user/source/DLT698.c ****     {
 957              		.loc 1 295 0
 958 0160 012F     		cmp	r7, #1
 959 0162 02D1     		bne	.L104
 960              	.LVL180:
 298:../user/source/DLT698.c ****     }
 961              		.loc 1 298 0
 962 0164 8778     		ldrb	r7, [r0, #2]	@ zero_extendqisi2
 963              	.LVL181:
 297:../user/source/DLT698.c ****         return (ucRcvBuf[1]);
 964              		.loc 1 297 0
 965 0166 0226     		movs	r6, #2
 966 0168 16E0     		b	.L103
 967              	.LVL182:
 968              	.L104:
 300:../user/source/DLT698.c ****     {
 969              		.loc 1 300 0
 970 016a 022F     		cmp	r7, #2
 971 016c 05D1     		bne	.L105
 972              	.LVL183:
 303:../user/source/DLT698.c ****     }
 973              		.loc 1 303 0
 974 016e 8778     		ldrb	r7, [r0, #2]	@ zero_extendqisi2
 975              	.LVL184:
 976 0170 C378     		ldrb	r3, [r0, #3]	@ zero_extendqisi2
 977 0172 43EA0727 		orr	r7, r3, r7, lsl #8
 302:../user/source/DLT698.c ****         return ((ucRcvBuf[1] << 8) | (ucRcvBuf[2]));
 978              		.loc 1 302 0
 979 0176 0326     		movs	r6, #3
 980 0178 0EE0     		b	.L103
 981              	.LVL185:
 982              	.L105:
 305:../user/source/DLT698.c ****     {
 983              		.loc 1 305 0
 984 017a 032F     		cmp	r7, #3
 985 017c 03D1     		bne	.L106
 986              	.LVL186:
 308:../user/source/DLT698.c ****                 (ucRcvBuf[2] << 8) & (ucRcvBuf[3]));
 987              		.loc 1 308 0
 988 017e 8778     		ldrb	r7, [r0, #2]	@ zero_extendqisi2
 989              	.LVL187:
 990 0180 3F04     		lsls	r7, r7, #16
 307:../user/source/DLT698.c ****         return ((ucRcvBuf[1] << 16) |
 991              		.loc 1 307 0
 992 0182 0426     		movs	r6, #4
 993 0184 08E0     		b	.L103
 994              	.LVL188:
 995              	.L106:
 311:../user/source/DLT698.c ****     {
 996              		.loc 1 311 0
 997 0186 042F     		cmp	r7, #4
ARM GAS  C:\Users\strag\AppData\Local\Temp\cc3UPhIa.s 			page 52


 998 0188 03D1     		bne	.L192
 999              	.LVL189:
 314:../user/source/DLT698.c ****                 (ucRcvBuf[2] << 16) & (ucRcvBuf[3] << 8) & (ucRcvBuf[4]));
 1000              		.loc 1 314 0
 1001 018a 8778     		ldrb	r7, [r0, #2]	@ zero_extendqisi2
 1002              	.LVL190:
 1003 018c 3F06     		lsls	r7, r7, #24
 313:../user/source/DLT698.c ****         return ((ucRcvBuf[1] << 24) |
 1004              		.loc 1 313 0
 1005 018e 0526     		movs	r6, #5
 1006 0190 02E0     		b	.L103
 1007              	.LVL191:
 1008              	.L192:
 1009              	.LBE69:
 1010              	.LBE68:
 848:../user/source/DLT698.c **** 
 1011              		.loc 1 848 0
 1012 0192 0026     		movs	r6, #0
 1013              	.LBB71:
 1014              	.LBB70:
 318:../user/source/DLT698.c **** }
 1015              		.loc 1 318 0
 1016 0194 4FF0FF37 		mov	r7, #-1
 1017              	.LVL192:
 1018              	.L103:
 1019              	.LBE70:
 1020              	.LBE71:
 889:../user/source/DLT698.c ****         {
 1021              		.loc 1 889 0
 1022 0198 002F     		cmp	r7, #0
 1023 019a C0F2F582 		blt	.L193
 894:../user/source/DLT698.c ****         Ptr += LenBytes;
 1024              		.loc 1 894 0
 1025 019e 741C     		adds	r4, r6, #1
 1026              	.LVL193:
 895:../user/source/DLT698.c **** 
 1027              		.loc 1 895 0
 1028 01a0 1644     		add	r6, r6, r2
 1029              	.LVL194:
 898:../user/source/DLT698.c ****         {
 1030              		.loc 1 898 0
 1031 01a2 4FF00008 		mov	r8, #0
 1032 01a6 0BE0     		b	.L107
 1033              	.LVL195:
 1034              	.L108:
 900:../user/source/DLT698.c ****             {
 1035              		.loc 1 900 0
 1036 01a8 291B     		subs	r1, r5, r4
 1037 01aa 3046     		mov	r0, r6
 1038 01ac FFF728FF 		bl	dwDlt698DataLen
 1039              	.LVL196:
 1040 01b0 0028     		cmp	r0, #0
 1041 01b2 40F3ED82 		ble	.L194
 905:../user/source/DLT698.c ****             Len += Res;
 1042              		.loc 1 905 0 discriminator 2
 1043 01b6 0644     		add	r6, r6, r0
 1044              	.LVL197:
ARM GAS  C:\Users\strag\AppData\Local\Temp\cc3UPhIa.s 			page 53


 906:../user/source/DLT698.c ****         }
 1045              		.loc 1 906 0 discriminator 2
 1046 01b8 0444     		add	r4, r4, r0
 1047              	.LVL198:
 1048 01ba A4B2     		uxth	r4, r4
 1049              	.LVL199:
 898:../user/source/DLT698.c ****         {
 1050              		.loc 1 898 0 discriminator 2
 1051 01bc 08F10108 		add	r8, r8, #1
 1052              	.LVL200:
 1053              	.L107:
 898:../user/source/DLT698.c ****         {
 1054              		.loc 1 898 0 is_stmt 0 discriminator 1
 1055 01c0 B845     		cmp	r8, r7
 1056 01c2 F1DB     		blt	.L108
 1057 01c4 CDE2     		b	.L62
 1058              	.LVL201:
 1059              	.L63:
 1060              	.LBB72:
 1061              	.LBB73:
 287:../user/source/DLT698.c ****     {
 1062              		.loc 1 287 0 is_stmt 1
 1063 01c6 4378     		ldrb	r3, [r0, #1]	@ zero_extendqisi2
 1064 01c8 13F0800F 		tst	r3, #128
 1065 01cc 01D1     		bne	.L109
 1066              	.LVL202:
 289:../user/source/DLT698.c ****         return ucRcvBuf[0];
 1067              		.loc 1 289 0
 1068 01ce 0122     		movs	r2, #1
 1069              	.LVL203:
 1070 01d0 1DE0     		b	.L110
 1071              	.LVL204:
 1072              	.L109:
 293:../user/source/DLT698.c **** 
 1073              		.loc 1 293 0
 1074 01d2 03F07F03 		and	r3, r3, #127
 1075              	.LVL205:
 295:../user/source/DLT698.c ****     {
 1076              		.loc 1 295 0
 1077 01d6 012B     		cmp	r3, #1
 1078 01d8 02D1     		bne	.L111
 1079              	.LVL206:
 298:../user/source/DLT698.c ****     }
 1080              		.loc 1 298 0
 1081 01da 8378     		ldrb	r3, [r0, #2]	@ zero_extendqisi2
 1082              	.LVL207:
 297:../user/source/DLT698.c ****         return (ucRcvBuf[1]);
 1083              		.loc 1 297 0
 1084 01dc 0222     		movs	r2, #2
 1085              	.LVL208:
 1086 01de 16E0     		b	.L110
 1087              	.LVL209:
 1088              	.L111:
 300:../user/source/DLT698.c ****     {
 1089              		.loc 1 300 0
 1090 01e0 022B     		cmp	r3, #2
 1091 01e2 05D1     		bne	.L112
ARM GAS  C:\Users\strag\AppData\Local\Temp\cc3UPhIa.s 			page 54


 1092              	.LVL210:
 303:../user/source/DLT698.c ****     }
 1093              		.loc 1 303 0
 1094 01e4 8278     		ldrb	r2, [r0, #2]	@ zero_extendqisi2
 1095              	.LVL211:
 1096 01e6 C378     		ldrb	r3, [r0, #3]	@ zero_extendqisi2
 1097              	.LVL212:
 1098 01e8 43EA0223 		orr	r3, r3, r2, lsl #8
 302:../user/source/DLT698.c ****         return ((ucRcvBuf[1] << 8) | (ucRcvBuf[2]));
 1099              		.loc 1 302 0
 1100 01ec 0322     		movs	r2, #3
 1101 01ee 0EE0     		b	.L110
 1102              	.LVL213:
 1103              	.L112:
 305:../user/source/DLT698.c ****     {
 1104              		.loc 1 305 0
 1105 01f0 032B     		cmp	r3, #3
 1106 01f2 03D1     		bne	.L113
 1107              	.LVL214:
 308:../user/source/DLT698.c ****                 (ucRcvBuf[2] << 8) & (ucRcvBuf[3]));
 1108              		.loc 1 308 0
 1109 01f4 8378     		ldrb	r3, [r0, #2]	@ zero_extendqisi2
 1110              	.LVL215:
 1111 01f6 1B04     		lsls	r3, r3, #16
 307:../user/source/DLT698.c ****         return ((ucRcvBuf[1] << 16) |
 1112              		.loc 1 307 0
 1113 01f8 0422     		movs	r2, #4
 1114              	.LVL216:
 1115 01fa 08E0     		b	.L110
 1116              	.LVL217:
 1117              	.L113:
 311:../user/source/DLT698.c ****     {
 1118              		.loc 1 311 0
 1119 01fc 042B     		cmp	r3, #4
 1120 01fe 03D1     		bne	.L195
 1121              	.LVL218:
 314:../user/source/DLT698.c ****                 (ucRcvBuf[2] << 16) & (ucRcvBuf[3] << 8) & (ucRcvBuf[4]));
 1122              		.loc 1 314 0
 1123 0200 8378     		ldrb	r3, [r0, #2]	@ zero_extendqisi2
 1124              	.LVL219:
 1125 0202 1B06     		lsls	r3, r3, #24
 313:../user/source/DLT698.c ****         return ((ucRcvBuf[1] << 24) |
 1126              		.loc 1 313 0
 1127 0204 0522     		movs	r2, #5
 1128              	.LVL220:
 1129 0206 02E0     		b	.L110
 1130              	.LVL221:
 1131              	.L195:
 1132              	.LBE73:
 1133              	.LBE72:
 848:../user/source/DLT698.c **** 
 1134              		.loc 1 848 0
 1135 0208 0022     		movs	r2, #0
 1136              	.LVL222:
 1137              	.LBB75:
 1138              	.LBB74:
 318:../user/source/DLT698.c **** }
ARM GAS  C:\Users\strag\AppData\Local\Temp\cc3UPhIa.s 			page 55


 1139              		.loc 1 318 0
 1140 020a 4FF0FF33 		mov	r3, #-1
 1141              	.LVL223:
 1142              	.L110:
 1143              	.LBE74:
 1144              	.LBE75:
 921:../user/source/DLT698.c ****         {
 1145              		.loc 1 921 0
 1146 020e 002B     		cmp	r3, #0
 1147 0210 C0F2C282 		blt	.L196
 926:../user/source/DLT698.c ****         Ptr += LenBytes;
 1148              		.loc 1 926 0
 1149 0214 0132     		adds	r2, r2, #1
 1150              	.LVL224:
 930:../user/source/DLT698.c ****         {
 1151              		.loc 1 930 0
 1152 0216 13F0070F 		tst	r3, #7
 1153 021a 07D1     		bne	.L114
 932:../user/source/DLT698.c ****             Len += varLen / 8;
 1154              		.loc 1 932 0
 1155 021c 1C46     		mov	r4, r3
 1156 021e 002B     		cmp	r3, #0
 1157 0220 00DA     		bge	.L115
 1158 0222 DC1D     		adds	r4, r3, #7
 1159              	.L115:
 933:../user/source/DLT698.c ****         }
 1160              		.loc 1 933 0
 1161 0224 02EBE402 		add	r2, r2, r4, asr #3
 1162              	.LVL225:
 1163 0228 94B2     		uxth	r4, r2
 1164              	.LVL226:
 1165 022a 9AE2     		b	.L62
 1166              	.LVL227:
 1167              	.L114:
 937:../user/source/DLT698.c ****             Len += (varLen / 8) + 1;
 1168              		.loc 1 937 0
 1169 022c 1C46     		mov	r4, r3
 1170 022e 002B     		cmp	r3, #0
 1171 0230 00DA     		bge	.L116
 1172 0232 DC1D     		adds	r4, r3, #7
 1173              	.L116:
 938:../user/source/DLT698.c ****         }
 1174              		.loc 1 938 0
 1175 0234 02EBE404 		add	r4, r2, r4, asr #3
 1176 0238 A4B2     		uxth	r4, r4
 1177 023a 0134     		adds	r4, r4, #1
 1178 023c A4B2     		uxth	r4, r4
 1179              	.LVL228:
 1180 023e 90E2     		b	.L62
 1181              	.LVL229:
 1182              	.L64:
 947:../user/source/DLT698.c ****     }
 1183              		.loc 1 947 0
 1184 0240 0524     		movs	r4, #5
 949:../user/source/DLT698.c ****     case DL_D_LONG_UNS:
 1185              		.loc 1 949 0
 1186 0242 8EE2     		b	.L62
ARM GAS  C:\Users\strag\AppData\Local\Temp\cc3UPhIa.s 			page 56


 1187              	.LVL230:
 1188              	.L65:
 955:../user/source/DLT698.c ****     }
 1189              		.loc 1 955 0
 1190 0244 0524     		movs	r4, #5
 957:../user/source/DLT698.c ****     case DL_OCTET_STR:
 1191              		.loc 1 957 0
 1192 0246 8CE2     		b	.L62
 1193              	.LVL231:
 1194              	.L66:
 1195              	.LBB76:
 1196              	.LBB77:
 287:../user/source/DLT698.c ****     {
 1197              		.loc 1 287 0
 1198 0248 4478     		ldrb	r4, [r0, #1]	@ zero_extendqisi2
 1199 024a 14F0800F 		tst	r4, #128
 1200 024e 01D1     		bne	.L117
 1201              	.LVL232:
 289:../user/source/DLT698.c ****         return ucRcvBuf[0];
 1202              		.loc 1 289 0
 1203 0250 0123     		movs	r3, #1
 1204 0252 1DE0     		b	.L118
 1205              	.LVL233:
 1206              	.L117:
 293:../user/source/DLT698.c **** 
 1207              		.loc 1 293 0
 1208 0254 04F07F04 		and	r4, r4, #127
 1209              	.LVL234:
 295:../user/source/DLT698.c ****     {
 1210              		.loc 1 295 0
 1211 0258 012C     		cmp	r4, #1
 1212 025a 02D1     		bne	.L119
 1213              	.LVL235:
 298:../user/source/DLT698.c ****     }
 1214              		.loc 1 298 0
 1215 025c 8478     		ldrb	r4, [r0, #2]	@ zero_extendqisi2
 1216              	.LVL236:
 297:../user/source/DLT698.c ****         return (ucRcvBuf[1]);
 1217              		.loc 1 297 0
 1218 025e 0223     		movs	r3, #2
 1219 0260 16E0     		b	.L118
 1220              	.LVL237:
 1221              	.L119:
 300:../user/source/DLT698.c ****     {
 1222              		.loc 1 300 0
 1223 0262 022C     		cmp	r4, #2
 1224 0264 05D1     		bne	.L120
 1225              	.LVL238:
 303:../user/source/DLT698.c ****     }
 1226              		.loc 1 303 0
 1227 0266 8478     		ldrb	r4, [r0, #2]	@ zero_extendqisi2
 1228              	.LVL239:
 1229 0268 C378     		ldrb	r3, [r0, #3]	@ zero_extendqisi2
 1230 026a 43EA0424 		orr	r4, r3, r4, lsl #8
 302:../user/source/DLT698.c ****         return ((ucRcvBuf[1] << 8) | (ucRcvBuf[2]));
 1231              		.loc 1 302 0
 1232 026e 0323     		movs	r3, #3
ARM GAS  C:\Users\strag\AppData\Local\Temp\cc3UPhIa.s 			page 57


 1233 0270 0EE0     		b	.L118
 1234              	.LVL240:
 1235              	.L120:
 305:../user/source/DLT698.c ****     {
 1236              		.loc 1 305 0
 1237 0272 032C     		cmp	r4, #3
 1238 0274 03D1     		bne	.L121
 1239              	.LVL241:
 308:../user/source/DLT698.c ****                 (ucRcvBuf[2] << 8) & (ucRcvBuf[3]));
 1240              		.loc 1 308 0
 1241 0276 8478     		ldrb	r4, [r0, #2]	@ zero_extendqisi2
 1242              	.LVL242:
 1243 0278 2404     		lsls	r4, r4, #16
 307:../user/source/DLT698.c ****         return ((ucRcvBuf[1] << 16) |
 1244              		.loc 1 307 0
 1245 027a 0423     		movs	r3, #4
 1246 027c 08E0     		b	.L118
 1247              	.LVL243:
 1248              	.L121:
 311:../user/source/DLT698.c ****     {
 1249              		.loc 1 311 0
 1250 027e 042C     		cmp	r4, #4
 1251 0280 03D1     		bne	.L197
 1252              	.LVL244:
 314:../user/source/DLT698.c ****                 (ucRcvBuf[2] << 16) & (ucRcvBuf[3] << 8) & (ucRcvBuf[4]));
 1253              		.loc 1 314 0
 1254 0282 8478     		ldrb	r4, [r0, #2]	@ zero_extendqisi2
 1255              	.LVL245:
 1256 0284 2406     		lsls	r4, r4, #24
 313:../user/source/DLT698.c ****         return ((ucRcvBuf[1] << 24) |
 1257              		.loc 1 313 0
 1258 0286 0523     		movs	r3, #5
 1259 0288 02E0     		b	.L118
 1260              	.LVL246:
 1261              	.L197:
 1262              	.LBE77:
 1263              	.LBE76:
 848:../user/source/DLT698.c **** 
 1264              		.loc 1 848 0
 1265 028a 0023     		movs	r3, #0
 1266              	.LBB79:
 1267              	.LBB78:
 318:../user/source/DLT698.c **** }
 1268              		.loc 1 318 0
 1269 028c 4FF0FF34 		mov	r4, #-1
 1270              	.LVL247:
 1271              	.L118:
 1272              	.LBE78:
 1273              	.LBE79:
 961:../user/source/DLT698.c ****         {
 1274              		.loc 1 961 0
 1275 0290 002C     		cmp	r4, #0
 1276 0292 C0F28582 		blt	.L198
 966:../user/source/DLT698.c ****         Ptr += LenBytes;
 1277              		.loc 1 966 0
 1278 0296 0133     		adds	r3, r3, #1
 1279              	.LVL248:
ARM GAS  C:\Users\strag\AppData\Local\Temp\cc3UPhIa.s 			page 58


 971:../user/source/DLT698.c ****     }
 1280              		.loc 1 971 0
 1281 0298 1C44     		add	r4, r4, r3
 1282 029a A4B2     		uxth	r4, r4
 1283              	.LVL249:
 973:../user/source/DLT698.c ****     case DL_VISIBLE_STR:
 1284              		.loc 1 973 0
 1285 029c 61E2     		b	.L62
 1286              	.LVL250:
 1287              	.L67:
 1288              	.LBB80:
 1289              	.LBB81:
 287:../user/source/DLT698.c ****     {
 1290              		.loc 1 287 0
 1291 029e 4478     		ldrb	r4, [r0, #1]	@ zero_extendqisi2
 1292 02a0 14F0800F 		tst	r4, #128
 1293 02a4 01D1     		bne	.L122
 1294              	.LVL251:
 289:../user/source/DLT698.c ****         return ucRcvBuf[0];
 1295              		.loc 1 289 0
 1296 02a6 0123     		movs	r3, #1
 1297 02a8 1DE0     		b	.L123
 1298              	.LVL252:
 1299              	.L122:
 293:../user/source/DLT698.c **** 
 1300              		.loc 1 293 0
 1301 02aa 04F07F04 		and	r4, r4, #127
 1302              	.LVL253:
 295:../user/source/DLT698.c ****     {
 1303              		.loc 1 295 0
 1304 02ae 012C     		cmp	r4, #1
 1305 02b0 02D1     		bne	.L124
 1306              	.LVL254:
 298:../user/source/DLT698.c ****     }
 1307              		.loc 1 298 0
 1308 02b2 8478     		ldrb	r4, [r0, #2]	@ zero_extendqisi2
 1309              	.LVL255:
 297:../user/source/DLT698.c ****         return (ucRcvBuf[1]);
 1310              		.loc 1 297 0
 1311 02b4 0223     		movs	r3, #2
 1312 02b6 16E0     		b	.L123
 1313              	.LVL256:
 1314              	.L124:
 300:../user/source/DLT698.c ****     {
 1315              		.loc 1 300 0
 1316 02b8 022C     		cmp	r4, #2
 1317 02ba 05D1     		bne	.L125
 1318              	.LVL257:
 303:../user/source/DLT698.c ****     }
 1319              		.loc 1 303 0
 1320 02bc 8478     		ldrb	r4, [r0, #2]	@ zero_extendqisi2
 1321              	.LVL258:
 1322 02be C378     		ldrb	r3, [r0, #3]	@ zero_extendqisi2
 1323 02c0 43EA0424 		orr	r4, r3, r4, lsl #8
 302:../user/source/DLT698.c ****         return ((ucRcvBuf[1] << 8) | (ucRcvBuf[2]));
 1324              		.loc 1 302 0
 1325 02c4 0323     		movs	r3, #3
ARM GAS  C:\Users\strag\AppData\Local\Temp\cc3UPhIa.s 			page 59


 1326 02c6 0EE0     		b	.L123
 1327              	.LVL259:
 1328              	.L125:
 305:../user/source/DLT698.c ****     {
 1329              		.loc 1 305 0
 1330 02c8 032C     		cmp	r4, #3
 1331 02ca 03D1     		bne	.L126
 1332              	.LVL260:
 308:../user/source/DLT698.c ****                 (ucRcvBuf[2] << 8) & (ucRcvBuf[3]));
 1333              		.loc 1 308 0
 1334 02cc 8478     		ldrb	r4, [r0, #2]	@ zero_extendqisi2
 1335              	.LVL261:
 1336 02ce 2404     		lsls	r4, r4, #16
 307:../user/source/DLT698.c ****         return ((ucRcvBuf[1] << 16) |
 1337              		.loc 1 307 0
 1338 02d0 0423     		movs	r3, #4
 1339 02d2 08E0     		b	.L123
 1340              	.LVL262:
 1341              	.L126:
 311:../user/source/DLT698.c ****     {
 1342              		.loc 1 311 0
 1343 02d4 042C     		cmp	r4, #4
 1344 02d6 03D1     		bne	.L199
 1345              	.LVL263:
 314:../user/source/DLT698.c ****                 (ucRcvBuf[2] << 16) & (ucRcvBuf[3] << 8) & (ucRcvBuf[4]));
 1346              		.loc 1 314 0
 1347 02d8 8478     		ldrb	r4, [r0, #2]	@ zero_extendqisi2
 1348              	.LVL264:
 1349 02da 2406     		lsls	r4, r4, #24
 313:../user/source/DLT698.c ****         return ((ucRcvBuf[1] << 24) |
 1350              		.loc 1 313 0
 1351 02dc 0523     		movs	r3, #5
 1352 02de 02E0     		b	.L123
 1353              	.LVL265:
 1354              	.L199:
 1355              	.LBE81:
 1356              	.LBE80:
 848:../user/source/DLT698.c **** 
 1357              		.loc 1 848 0
 1358 02e0 0023     		movs	r3, #0
 1359              	.LBB83:
 1360              	.LBB82:
 318:../user/source/DLT698.c **** }
 1361              		.loc 1 318 0
 1362 02e2 4FF0FF34 		mov	r4, #-1
 1363              	.LVL266:
 1364              	.L123:
 1365              	.LBE82:
 1366              	.LBE83:
 977:../user/source/DLT698.c ****         {
 1367              		.loc 1 977 0
 1368 02e6 002C     		cmp	r4, #0
 1369 02e8 C0F25E82 		blt	.L200
 982:../user/source/DLT698.c ****         Ptr += LenBytes;
 1370              		.loc 1 982 0
 1371 02ec 0133     		adds	r3, r3, #1
 1372              	.LVL267:
ARM GAS  C:\Users\strag\AppData\Local\Temp\cc3UPhIa.s 			page 60


 987:../user/source/DLT698.c ****     }
 1373              		.loc 1 987 0
 1374 02ee 1C44     		add	r4, r4, r3
 1375 02f0 A4B2     		uxth	r4, r4
 1376              	.LVL268:
 989:../user/source/DLT698.c ****     case DL_UTF8_STR:
 1377              		.loc 1 989 0
 1378 02f2 36E2     		b	.L62
 1379              	.LVL269:
 1380              	.L68:
 1381              	.LBB84:
 1382              	.LBB85:
 287:../user/source/DLT698.c ****     {
 1383              		.loc 1 287 0
 1384 02f4 4478     		ldrb	r4, [r0, #1]	@ zero_extendqisi2
 1385 02f6 14F0800F 		tst	r4, #128
 1386 02fa 01D1     		bne	.L127
 1387              	.LVL270:
 289:../user/source/DLT698.c ****         return ucRcvBuf[0];
 1388              		.loc 1 289 0
 1389 02fc 0123     		movs	r3, #1
 1390 02fe 1DE0     		b	.L128
 1391              	.LVL271:
 1392              	.L127:
 293:../user/source/DLT698.c **** 
 1393              		.loc 1 293 0
 1394 0300 04F07F04 		and	r4, r4, #127
 1395              	.LVL272:
 295:../user/source/DLT698.c ****     {
 1396              		.loc 1 295 0
 1397 0304 012C     		cmp	r4, #1
 1398 0306 02D1     		bne	.L129
 1399              	.LVL273:
 298:../user/source/DLT698.c ****     }
 1400              		.loc 1 298 0
 1401 0308 8478     		ldrb	r4, [r0, #2]	@ zero_extendqisi2
 1402              	.LVL274:
 297:../user/source/DLT698.c ****         return (ucRcvBuf[1]);
 1403              		.loc 1 297 0
 1404 030a 0223     		movs	r3, #2
 1405 030c 16E0     		b	.L128
 1406              	.LVL275:
 1407              	.L129:
 300:../user/source/DLT698.c ****     {
 1408              		.loc 1 300 0
 1409 030e 022C     		cmp	r4, #2
 1410 0310 05D1     		bne	.L130
 1411              	.LVL276:
 303:../user/source/DLT698.c ****     }
 1412              		.loc 1 303 0
 1413 0312 8478     		ldrb	r4, [r0, #2]	@ zero_extendqisi2
 1414              	.LVL277:
 1415 0314 C378     		ldrb	r3, [r0, #3]	@ zero_extendqisi2
 1416 0316 43EA0424 		orr	r4, r3, r4, lsl #8
 302:../user/source/DLT698.c ****         return ((ucRcvBuf[1] << 8) | (ucRcvBuf[2]));
 1417              		.loc 1 302 0
 1418 031a 0323     		movs	r3, #3
ARM GAS  C:\Users\strag\AppData\Local\Temp\cc3UPhIa.s 			page 61


 1419 031c 0EE0     		b	.L128
 1420              	.LVL278:
 1421              	.L130:
 305:../user/source/DLT698.c ****     {
 1422              		.loc 1 305 0
 1423 031e 032C     		cmp	r4, #3
 1424 0320 03D1     		bne	.L131
 1425              	.LVL279:
 308:../user/source/DLT698.c ****                 (ucRcvBuf[2] << 8) & (ucRcvBuf[3]));
 1426              		.loc 1 308 0
 1427 0322 8478     		ldrb	r4, [r0, #2]	@ zero_extendqisi2
 1428              	.LVL280:
 1429 0324 2404     		lsls	r4, r4, #16
 307:../user/source/DLT698.c ****         return ((ucRcvBuf[1] << 16) |
 1430              		.loc 1 307 0
 1431 0326 0423     		movs	r3, #4
 1432 0328 08E0     		b	.L128
 1433              	.LVL281:
 1434              	.L131:
 311:../user/source/DLT698.c ****     {
 1435              		.loc 1 311 0
 1436 032a 042C     		cmp	r4, #4
 1437 032c 03D1     		bne	.L201
 1438              	.LVL282:
 314:../user/source/DLT698.c ****                 (ucRcvBuf[2] << 16) & (ucRcvBuf[3] << 8) & (ucRcvBuf[4]));
 1439              		.loc 1 314 0
 1440 032e 8478     		ldrb	r4, [r0, #2]	@ zero_extendqisi2
 1441              	.LVL283:
 1442 0330 2406     		lsls	r4, r4, #24
 313:../user/source/DLT698.c ****         return ((ucRcvBuf[1] << 24) |
 1443              		.loc 1 313 0
 1444 0332 0523     		movs	r3, #5
 1445 0334 02E0     		b	.L128
 1446              	.LVL284:
 1447              	.L201:
 1448              	.LBE85:
 1449              	.LBE84:
 848:../user/source/DLT698.c **** 
 1450              		.loc 1 848 0
 1451 0336 0023     		movs	r3, #0
 1452              	.LBB87:
 1453              	.LBB86:
 318:../user/source/DLT698.c **** }
 1454              		.loc 1 318 0
 1455 0338 4FF0FF34 		mov	r4, #-1
 1456              	.LVL285:
 1457              	.L128:
 1458              	.LBE86:
 1459              	.LBE87:
 993:../user/source/DLT698.c ****         {
 1460              		.loc 1 993 0
 1461 033c 002C     		cmp	r4, #0
 1462 033e C0F23782 		blt	.L202
 998:../user/source/DLT698.c ****         Ptr += LenBytes;
 1463              		.loc 1 998 0
 1464 0342 0133     		adds	r3, r3, #1
 1465              	.LVL286:
ARM GAS  C:\Users\strag\AppData\Local\Temp\cc3UPhIa.s 			page 62


1003:../user/source/DLT698.c ****     }
 1466              		.loc 1 1003 0
 1467 0344 1C44     		add	r4, r4, r3
 1468 0346 A4B2     		uxth	r4, r4
 1469              	.LVL287:
1005:../user/source/DLT698.c ****     case DL_INTEGER:
 1470              		.loc 1 1005 0
 1471 0348 0BE2     		b	.L62
 1472              	.LVL288:
 1473              	.L69:
1019:../user/source/DLT698.c ****     }
 1474              		.loc 1 1019 0
 1475 034a 0324     		movs	r4, #3
1021:../user/source/DLT698.c ****     case DL_CHAR_UNS:
 1476              		.loc 1 1021 0
 1477 034c 09E2     		b	.L62
 1478              	.LVL289:
 1479              	.L70:
1035:../user/source/DLT698.c ****     }
 1480              		.loc 1 1035 0
 1481 034e 0324     		movs	r4, #3
1037:../user/source/DLT698.c ****     case DL_LONG64:
 1482              		.loc 1 1037 0
 1483 0350 07E2     		b	.L62
 1484              	.LVL290:
 1485              	.L71:
1043:../user/source/DLT698.c ****     }
 1486              		.loc 1 1043 0
 1487 0352 0924     		movs	r4, #9
1045:../user/source/DLT698.c ****     case DL_LONG64_UNS:
 1488              		.loc 1 1045 0
 1489 0354 05E2     		b	.L62
 1490              	.LVL291:
 1491              	.L72:
1051:../user/source/DLT698.c ****     }
 1492              		.loc 1 1051 0
 1493 0356 0924     		movs	r4, #9
1053:../user/source/DLT698.c ****     case DL_ENUM:
 1494              		.loc 1 1053 0
 1495 0358 03E2     		b	.L62
 1496              	.LVL292:
 1497              	.L73:
1067:../user/source/DLT698.c ****     }
 1498              		.loc 1 1067 0
 1499 035a 0524     		movs	r4, #5
1069:../user/source/DLT698.c ****     case DL_FLOAT64:
 1500              		.loc 1 1069 0
 1501 035c 01E2     		b	.L62
 1502              	.LVL293:
 1503              	.L74:
1075:../user/source/DLT698.c ****     }
 1504              		.loc 1 1075 0
 1505 035e 0924     		movs	r4, #9
1077:../user/source/DLT698.c ****     case DL_DATE_TIME:
 1506              		.loc 1 1077 0
 1507 0360 FFE1     		b	.L62
 1508              	.LVL294:
ARM GAS  C:\Users\strag\AppData\Local\Temp\cc3UPhIa.s 			page 63


 1509              	.L75:
1083:../user/source/DLT698.c ****     }
 1510              		.loc 1 1083 0
 1511 0362 0B24     		movs	r4, #11
1085:../user/source/DLT698.c ****     case DL_DATE:
 1512              		.loc 1 1085 0
 1513 0364 FDE1     		b	.L62
 1514              	.LVL295:
 1515              	.L76:
1091:../user/source/DLT698.c ****     }
 1516              		.loc 1 1091 0
 1517 0366 0624     		movs	r4, #6
1093:../user/source/DLT698.c ****     case DL_TIME:
 1518              		.loc 1 1093 0
 1519 0368 FBE1     		b	.L62
 1520              	.LVL296:
 1521              	.L77:
1099:../user/source/DLT698.c ****     }
 1522              		.loc 1 1099 0
 1523 036a 0424     		movs	r4, #4
1101:../user/source/DLT698.c ****     case DL_DATE_TIME_S:
 1524              		.loc 1 1101 0
 1525 036c F9E1     		b	.L62
 1526              	.LVL297:
 1527              	.L78:
1107:../user/source/DLT698.c ****     }
 1528              		.loc 1 1107 0
 1529 036e 0824     		movs	r4, #8
1109:../user/source/DLT698.c ****     case DL_OI:
 1530              		.loc 1 1109 0
 1531 0370 F7E1     		b	.L62
 1532              	.LVL298:
 1533              	.L79:
1115:../user/source/DLT698.c ****     }
 1534              		.loc 1 1115 0
 1535 0372 0324     		movs	r4, #3
1117:../user/source/DLT698.c ****     case DL_OAD:
 1536              		.loc 1 1117 0
 1537 0374 F5E1     		b	.L62
 1538              	.LVL299:
 1539              	.L80:
1123:../user/source/DLT698.c ****     }
 1540              		.loc 1 1123 0
 1541 0376 0524     		movs	r4, #5
1125:../user/source/DLT698.c ****     case DL_ROAD:
 1542              		.loc 1 1125 0
 1543 0378 F3E1     		b	.L62
 1544              	.LVL300:
 1545              	.L81:
 1546              	.LBB88:
 1547              	.LBB89:
 287:../user/source/DLT698.c ****     {
 1548              		.loc 1 287 0
 1549 037a 4279     		ldrb	r2, [r0, #5]	@ zero_extendqisi2
 1550 037c 12F0800F 		tst	r2, #128
 1551 0380 01D1     		bne	.L132
 1552              	.LVL301:
ARM GAS  C:\Users\strag\AppData\Local\Temp\cc3UPhIa.s 			page 64


 289:../user/source/DLT698.c ****         return ucRcvBuf[0];
 1553              		.loc 1 289 0
 1554 0382 0124     		movs	r4, #1
 1555 0384 1DE0     		b	.L133
 1556              	.LVL302:
 1557              	.L132:
 293:../user/source/DLT698.c **** 
 1558              		.loc 1 293 0
 1559 0386 02F07F02 		and	r2, r2, #127
 1560              	.LVL303:
 295:../user/source/DLT698.c ****     {
 1561              		.loc 1 295 0
 1562 038a 012A     		cmp	r2, #1
 1563 038c 02D1     		bne	.L134
 1564              	.LVL304:
 298:../user/source/DLT698.c ****     }
 1565              		.loc 1 298 0
 1566 038e 8279     		ldrb	r2, [r0, #6]	@ zero_extendqisi2
 1567              	.LVL305:
 297:../user/source/DLT698.c ****         return (ucRcvBuf[1]);
 1568              		.loc 1 297 0
 1569 0390 0224     		movs	r4, #2
 1570 0392 16E0     		b	.L133
 1571              	.LVL306:
 1572              	.L134:
 300:../user/source/DLT698.c ****     {
 1573              		.loc 1 300 0
 1574 0394 022A     		cmp	r2, #2
 1575 0396 05D1     		bne	.L135
 1576              	.LVL307:
 303:../user/source/DLT698.c ****     }
 1577              		.loc 1 303 0
 1578 0398 8279     		ldrb	r2, [r0, #6]	@ zero_extendqisi2
 1579              	.LVL308:
 1580 039a C379     		ldrb	r3, [r0, #7]	@ zero_extendqisi2
 1581 039c 43EA0222 		orr	r2, r3, r2, lsl #8
 302:../user/source/DLT698.c ****         return ((ucRcvBuf[1] << 8) | (ucRcvBuf[2]));
 1582              		.loc 1 302 0
 1583 03a0 0324     		movs	r4, #3
 1584 03a2 0EE0     		b	.L133
 1585              	.LVL309:
 1586              	.L135:
 305:../user/source/DLT698.c ****     {
 1587              		.loc 1 305 0
 1588 03a4 032A     		cmp	r2, #3
 1589 03a6 03D1     		bne	.L136
 1590              	.LVL310:
 308:../user/source/DLT698.c ****                 (ucRcvBuf[2] << 8) & (ucRcvBuf[3]));
 1591              		.loc 1 308 0
 1592 03a8 8279     		ldrb	r2, [r0, #6]	@ zero_extendqisi2
 1593              	.LVL311:
 1594 03aa 1204     		lsls	r2, r2, #16
 307:../user/source/DLT698.c ****         return ((ucRcvBuf[1] << 16) |
 1595              		.loc 1 307 0
 1596 03ac 0424     		movs	r4, #4
 1597 03ae 08E0     		b	.L133
 1598              	.LVL312:
ARM GAS  C:\Users\strag\AppData\Local\Temp\cc3UPhIa.s 			page 65


 1599              	.L136:
 311:../user/source/DLT698.c ****     {
 1600              		.loc 1 311 0
 1601 03b0 042A     		cmp	r2, #4
 1602 03b2 03D1     		bne	.L203
 1603              	.LVL313:
 314:../user/source/DLT698.c ****                 (ucRcvBuf[2] << 16) & (ucRcvBuf[3] << 8) & (ucRcvBuf[4]));
 1604              		.loc 1 314 0
 1605 03b4 8279     		ldrb	r2, [r0, #6]	@ zero_extendqisi2
 1606              	.LVL314:
 1607 03b6 1206     		lsls	r2, r2, #24
 313:../user/source/DLT698.c ****         return ((ucRcvBuf[1] << 24) |
 1608              		.loc 1 313 0
 1609 03b8 0524     		movs	r4, #5
 1610 03ba 02E0     		b	.L133
 1611              	.LVL315:
 1612              	.L203:
 1613              	.LBE89:
 1614              	.LBE88:
 848:../user/source/DLT698.c **** 
 1615              		.loc 1 848 0
 1616 03bc 0024     		movs	r4, #0
 1617              	.LBB91:
 1618              	.LBB90:
 318:../user/source/DLT698.c **** }
 1619              		.loc 1 318 0
 1620 03be 4FF0FF32 		mov	r2, #-1
 1621              	.LVL316:
 1622              	.L133:
 1623              	.LBE90:
 1624              	.LBE91:
1132:../user/source/DLT698.c ****         {
 1625              		.loc 1 1132 0
 1626 03c2 002A     		cmp	r2, #0
 1627 03c4 C0F2F881 		blt	.L204
1137:../user/source/DLT698.c ****         Ptr += LenBytes;
 1628              		.loc 1 1137 0
 1629 03c8 0534     		adds	r4, r4, #5
 1630              	.LVL317:
1141:../user/source/DLT698.c ****         {
 1631              		.loc 1 1141 0
 1632 03ca 0023     		movs	r3, #0
 1633 03cc 02E0     		b	.L137
 1634              	.LVL318:
 1635              	.L138:
1144:../user/source/DLT698.c ****         }
 1636              		.loc 1 1144 0 discriminator 3
 1637 03ce 0434     		adds	r4, r4, #4
 1638              	.LVL319:
 1639 03d0 A4B2     		uxth	r4, r4
 1640              	.LVL320:
1141:../user/source/DLT698.c ****         {
 1641              		.loc 1 1141 0 discriminator 3
 1642 03d2 0133     		adds	r3, r3, #1
 1643              	.LVL321:
 1644              	.L137:
1141:../user/source/DLT698.c ****         {
ARM GAS  C:\Users\strag\AppData\Local\Temp\cc3UPhIa.s 			page 66


 1645              		.loc 1 1141 0 is_stmt 0 discriminator 1
 1646 03d4 9342     		cmp	r3, r2
 1647 03d6 FADB     		blt	.L138
 1648 03d8 C3E1     		b	.L62
 1649              	.LVL322:
 1650              	.L82:
1153:../user/source/DLT698.c ****     }
 1651              		.loc 1 1153 0 is_stmt 1
 1652 03da 0524     		movs	r4, #5
1155:../user/source/DLT698.c ****     case DL_TI:
 1653              		.loc 1 1155 0
 1654 03dc C1E1     		b	.L62
 1655              	.LVL323:
 1656              	.L83:
1161:../user/source/DLT698.c ****     }
 1657              		.loc 1 1161 0
 1658 03de 0424     		movs	r4, #4
1163:../user/source/DLT698.c ****     case DL_TSA: // octet-string
 1659              		.loc 1 1163 0
 1660 03e0 BFE1     		b	.L62
 1661              	.LVL324:
 1662              	.L84:
 1663              	.LBB92:
 1664              	.LBB93:
 287:../user/source/DLT698.c ****     {
 1665              		.loc 1 287 0
 1666 03e2 4478     		ldrb	r4, [r0, #1]	@ zero_extendqisi2
 1667 03e4 14F0800F 		tst	r4, #128
 1668 03e8 01D1     		bne	.L139
 1669              	.LVL325:
 289:../user/source/DLT698.c ****         return ucRcvBuf[0];
 1670              		.loc 1 289 0
 1671 03ea 0123     		movs	r3, #1
 1672 03ec 1DE0     		b	.L140
 1673              	.LVL326:
 1674              	.L139:
 293:../user/source/DLT698.c **** 
 1675              		.loc 1 293 0
 1676 03ee 04F07F04 		and	r4, r4, #127
 1677              	.LVL327:
 295:../user/source/DLT698.c ****     {
 1678              		.loc 1 295 0
 1679 03f2 012C     		cmp	r4, #1
 1680 03f4 02D1     		bne	.L141
 1681              	.LVL328:
 298:../user/source/DLT698.c ****     }
 1682              		.loc 1 298 0
 1683 03f6 8478     		ldrb	r4, [r0, #2]	@ zero_extendqisi2
 1684              	.LVL329:
 297:../user/source/DLT698.c ****         return (ucRcvBuf[1]);
 1685              		.loc 1 297 0
 1686 03f8 0223     		movs	r3, #2
 1687 03fa 16E0     		b	.L140
 1688              	.LVL330:
 1689              	.L141:
 300:../user/source/DLT698.c ****     {
 1690              		.loc 1 300 0
ARM GAS  C:\Users\strag\AppData\Local\Temp\cc3UPhIa.s 			page 67


 1691 03fc 022C     		cmp	r4, #2
 1692 03fe 05D1     		bne	.L142
 1693              	.LVL331:
 303:../user/source/DLT698.c ****     }
 1694              		.loc 1 303 0
 1695 0400 8478     		ldrb	r4, [r0, #2]	@ zero_extendqisi2
 1696              	.LVL332:
 1697 0402 C378     		ldrb	r3, [r0, #3]	@ zero_extendqisi2
 1698 0404 43EA0424 		orr	r4, r3, r4, lsl #8
 302:../user/source/DLT698.c ****         return ((ucRcvBuf[1] << 8) | (ucRcvBuf[2]));
 1699              		.loc 1 302 0
 1700 0408 0323     		movs	r3, #3
 1701 040a 0EE0     		b	.L140
 1702              	.LVL333:
 1703              	.L142:
 305:../user/source/DLT698.c ****     {
 1704              		.loc 1 305 0
 1705 040c 032C     		cmp	r4, #3
 1706 040e 03D1     		bne	.L143
 1707              	.LVL334:
 308:../user/source/DLT698.c ****                 (ucRcvBuf[2] << 8) & (ucRcvBuf[3]));
 1708              		.loc 1 308 0
 1709 0410 8478     		ldrb	r4, [r0, #2]	@ zero_extendqisi2
 1710              	.LVL335:
 1711 0412 2404     		lsls	r4, r4, #16
 307:../user/source/DLT698.c ****         return ((ucRcvBuf[1] << 16) |
 1712              		.loc 1 307 0
 1713 0414 0423     		movs	r3, #4
 1714 0416 08E0     		b	.L140
 1715              	.LVL336:
 1716              	.L143:
 311:../user/source/DLT698.c ****     {
 1717              		.loc 1 311 0
 1718 0418 042C     		cmp	r4, #4
 1719 041a 03D1     		bne	.L205
 1720              	.LVL337:
 314:../user/source/DLT698.c ****                 (ucRcvBuf[2] << 16) & (ucRcvBuf[3] << 8) & (ucRcvBuf[4]));
 1721              		.loc 1 314 0
 1722 041c 8478     		ldrb	r4, [r0, #2]	@ zero_extendqisi2
 1723              	.LVL338:
 1724 041e 2406     		lsls	r4, r4, #24
 313:../user/source/DLT698.c ****         return ((ucRcvBuf[1] << 24) |
 1725              		.loc 1 313 0
 1726 0420 0523     		movs	r3, #5
 1727 0422 02E0     		b	.L140
 1728              	.LVL339:
 1729              	.L205:
 1730              	.LBE93:
 1731              	.LBE92:
 848:../user/source/DLT698.c **** 
 1732              		.loc 1 848 0
 1733 0424 0023     		movs	r3, #0
 1734              	.LBB95:
 1735              	.LBB94:
 318:../user/source/DLT698.c **** }
 1736              		.loc 1 318 0
 1737 0426 4FF0FF34 		mov	r4, #-1
ARM GAS  C:\Users\strag\AppData\Local\Temp\cc3UPhIa.s 			page 68


 1738              	.LVL340:
 1739              	.L140:
 1740              	.LBE94:
 1741              	.LBE95:
1167:../user/source/DLT698.c ****         {
 1742              		.loc 1 1167 0
 1743 042a 002C     		cmp	r4, #0
 1744 042c C0F2C881 		blt	.L206
1172:../user/source/DLT698.c ****         Ptr += LenBytes;
 1745              		.loc 1 1172 0
 1746 0430 0133     		adds	r3, r3, #1
 1747              	.LVL341:
1177:../user/source/DLT698.c ****     }
 1748              		.loc 1 1177 0
 1749 0432 1C44     		add	r4, r4, r3
 1750 0434 A4B2     		uxth	r4, r4
 1751              	.LVL342:
1179:../user/source/DLT698.c ****     case DL_MAC: // octet-string
 1752              		.loc 1 1179 0
 1753 0436 94E1     		b	.L62
 1754              	.LVL343:
 1755              	.L85:
 1756              	.LBB96:
 1757              	.LBB97:
 287:../user/source/DLT698.c ****     {
 1758              		.loc 1 287 0
 1759 0438 4478     		ldrb	r4, [r0, #1]	@ zero_extendqisi2
 1760 043a 14F0800F 		tst	r4, #128
 1761 043e 01D1     		bne	.L144
 1762              	.LVL344:
 289:../user/source/DLT698.c ****         return ucRcvBuf[0];
 1763              		.loc 1 289 0
 1764 0440 0123     		movs	r3, #1
 1765 0442 1DE0     		b	.L145
 1766              	.LVL345:
 1767              	.L144:
 293:../user/source/DLT698.c **** 
 1768              		.loc 1 293 0
 1769 0444 04F07F04 		and	r4, r4, #127
 1770              	.LVL346:
 295:../user/source/DLT698.c ****     {
 1771              		.loc 1 295 0
 1772 0448 012C     		cmp	r4, #1
 1773 044a 02D1     		bne	.L146
 1774              	.LVL347:
 298:../user/source/DLT698.c ****     }
 1775              		.loc 1 298 0
 1776 044c 8478     		ldrb	r4, [r0, #2]	@ zero_extendqisi2
 1777              	.LVL348:
 297:../user/source/DLT698.c ****         return (ucRcvBuf[1]);
 1778              		.loc 1 297 0
 1779 044e 0223     		movs	r3, #2
 1780 0450 16E0     		b	.L145
 1781              	.LVL349:
 1782              	.L146:
 300:../user/source/DLT698.c ****     {
 1783              		.loc 1 300 0
ARM GAS  C:\Users\strag\AppData\Local\Temp\cc3UPhIa.s 			page 69


 1784 0452 022C     		cmp	r4, #2
 1785 0454 05D1     		bne	.L147
 1786              	.LVL350:
 303:../user/source/DLT698.c ****     }
 1787              		.loc 1 303 0
 1788 0456 8478     		ldrb	r4, [r0, #2]	@ zero_extendqisi2
 1789              	.LVL351:
 1790 0458 C378     		ldrb	r3, [r0, #3]	@ zero_extendqisi2
 1791 045a 43EA0424 		orr	r4, r3, r4, lsl #8
 302:../user/source/DLT698.c ****         return ((ucRcvBuf[1] << 8) | (ucRcvBuf[2]));
 1792              		.loc 1 302 0
 1793 045e 0323     		movs	r3, #3
 1794 0460 0EE0     		b	.L145
 1795              	.LVL352:
 1796              	.L147:
 305:../user/source/DLT698.c ****     {
 1797              		.loc 1 305 0
 1798 0462 032C     		cmp	r4, #3
 1799 0464 03D1     		bne	.L148
 1800              	.LVL353:
 308:../user/source/DLT698.c ****                 (ucRcvBuf[2] << 8) & (ucRcvBuf[3]));
 1801              		.loc 1 308 0
 1802 0466 8478     		ldrb	r4, [r0, #2]	@ zero_extendqisi2
 1803              	.LVL354:
 1804 0468 2404     		lsls	r4, r4, #16
 307:../user/source/DLT698.c ****         return ((ucRcvBuf[1] << 16) |
 1805              		.loc 1 307 0
 1806 046a 0423     		movs	r3, #4
 1807 046c 08E0     		b	.L145
 1808              	.LVL355:
 1809              	.L148:
 311:../user/source/DLT698.c ****     {
 1810              		.loc 1 311 0
 1811 046e 042C     		cmp	r4, #4
 1812 0470 03D1     		bne	.L207
 1813              	.LVL356:
 314:../user/source/DLT698.c ****                 (ucRcvBuf[2] << 16) & (ucRcvBuf[3] << 8) & (ucRcvBuf[4]));
 1814              		.loc 1 314 0
 1815 0472 8478     		ldrb	r4, [r0, #2]	@ zero_extendqisi2
 1816              	.LVL357:
 1817 0474 2406     		lsls	r4, r4, #24
 313:../user/source/DLT698.c ****         return ((ucRcvBuf[1] << 24) |
 1818              		.loc 1 313 0
 1819 0476 0523     		movs	r3, #5
 1820 0478 02E0     		b	.L145
 1821              	.LVL358:
 1822              	.L207:
 1823              	.LBE97:
 1824              	.LBE96:
 848:../user/source/DLT698.c **** 
 1825              		.loc 1 848 0
 1826 047a 0023     		movs	r3, #0
 1827              	.LBB99:
 1828              	.LBB98:
 318:../user/source/DLT698.c **** }
 1829              		.loc 1 318 0
 1830 047c 4FF0FF34 		mov	r4, #-1
ARM GAS  C:\Users\strag\AppData\Local\Temp\cc3UPhIa.s 			page 70


 1831              	.LVL359:
 1832              	.L145:
 1833              	.LBE98:
 1834              	.LBE99:
1184:../user/source/DLT698.c ****         {
 1835              		.loc 1 1184 0
 1836 0480 002C     		cmp	r4, #0
 1837 0482 C0F2A181 		blt	.L208
1189:../user/source/DLT698.c ****         Ptr += LenBytes;
 1838              		.loc 1 1189 0
 1839 0486 0133     		adds	r3, r3, #1
 1840              	.LVL360:
1194:../user/source/DLT698.c ****     }
 1841              		.loc 1 1194 0
 1842 0488 1C44     		add	r4, r4, r3
 1843 048a A4B2     		uxth	r4, r4
 1844              	.LVL361:
1196:../user/source/DLT698.c ****     case DL_REGION:
 1845              		.loc 1 1196 0
 1846 048c 69E1     		b	.L62
 1847              	.LVL362:
 1848              	.L86:
1201:../user/source/DLT698.c ****         Len += 1; // ENUMERATED
 1849              		.loc 1 1201 0
 1850 048e 861C     		adds	r6, r0, #2
 1851              	.LVL363:
1204:../user/source/DLT698.c ****         { // start data
 1852              		.loc 1 1204 0
 1853 0490 A91E     		subs	r1, r5, #2
 1854 0492 3046     		mov	r0, r6
 1855              	.LVL364:
 1856 0494 FFF7B4FD 		bl	dwDlt698DataLen
 1857              	.LVL365:
 1858 0498 0028     		cmp	r0, #0
 1859 049a C0F29981 		blt	.L209
 1860              	.LVL366:
1209:../user/source/DLT698.c **** 
 1861              		.loc 1 1209 0
 1862 049e 841C     		adds	r4, r0, #2
 1863 04a0 A4B2     		uxth	r4, r4
 1864              	.LVL367:
1211:../user/source/DLT698.c ****         { // end data
 1865              		.loc 1 1211 0
 1866 04a2 291B     		subs	r1, r5, r4
 1867 04a4 3044     		add	r0, r0, r6
 1868              	.LVL368:
 1869 04a6 FFF7ABFD 		bl	dwDlt698DataLen
 1870              	.LVL369:
 1871 04aa 0028     		cmp	r0, #0
 1872 04ac C0F29481 		blt	.L210
1216:../user/source/DLT698.c ****     }
 1873              		.loc 1 1216 0
 1874 04b0 0444     		add	r4, r4, r0
 1875              	.LVL370:
 1876 04b2 A4B2     		uxth	r4, r4
 1877              	.LVL371:
1218:../user/source/DLT698.c ****     case DL_SCALER_UNIT:
ARM GAS  C:\Users\strag\AppData\Local\Temp\cc3UPhIa.s 			page 71


 1878              		.loc 1 1218 0
 1879 04b4 55E1     		b	.L62
 1880              	.LVL372:
 1881              	.L87:
1227:../user/source/DLT698.c ****     }
 1882              		.loc 1 1227 0
 1883 04b6 0324     		movs	r4, #3
1229:../user/source/DLT698.c ****     case DL_RSD:
 1884              		.loc 1 1229 0
 1885 04b8 53E1     		b	.L62
 1886              	.LVL373:
 1887              	.L88:
1232:../user/source/DLT698.c ****         {
 1888              		.loc 1 1232 0
 1889 04ba 691E     		subs	r1, r5, #1
 1890 04bc 1046     		mov	r0, r2
 1891              	.LVL374:
 1892 04be FFF7FEFF 		bl	dwDlt698RSDLen
 1893              	.LVL375:
 1894 04c2 0028     		cmp	r0, #0
 1895 04c4 C0F28C81 		blt	.L211
 1896              	.LVL376:
1238:../user/source/DLT698.c ****     }
 1897              		.loc 1 1238 0
 1898 04c8 0130     		adds	r0, r0, #1
 1899              	.LVL377:
 1900 04ca 84B2     		uxth	r4, r0
 1901              	.LVL378:
1240:../user/source/DLT698.c ****     case DL_CSD:
 1902              		.loc 1 1240 0
 1903 04cc 49E1     		b	.L62
 1904              	.LVL379:
 1905              	.L89:
1243:../user/source/DLT698.c ****         {
 1906              		.loc 1 1243 0
 1907 04ce 4378     		ldrb	r3, [r0, #1]	@ zero_extendqisi2
 1908 04d0 002B     		cmp	r3, #0
 1909 04d2 00F04581 		beq	.L212
1251:../user/source/DLT698.c ****         {
 1910              		.loc 1 1251 0
 1911 04d6 012B     		cmp	r3, #1
 1912 04d8 40F08681 		bne	.L213
 1913              	.LVL380:
 1914              	.LBB100:
 1915              	.LBB101:
 287:../user/source/DLT698.c ****     {
 1916              		.loc 1 287 0
 1917 04dc 8279     		ldrb	r2, [r0, #6]	@ zero_extendqisi2
 1918 04de 12F0800F 		tst	r2, #128
 1919 04e2 01D1     		bne	.L149
 1920              	.LVL381:
 289:../user/source/DLT698.c ****         return ucRcvBuf[0];
 1921              		.loc 1 289 0
 1922 04e4 0124     		movs	r4, #1
 1923 04e6 1DE0     		b	.L150
 1924              	.LVL382:
 1925              	.L149:
ARM GAS  C:\Users\strag\AppData\Local\Temp\cc3UPhIa.s 			page 72


 293:../user/source/DLT698.c **** 
 1926              		.loc 1 293 0
 1927 04e8 02F07F02 		and	r2, r2, #127
 1928              	.LVL383:
 295:../user/source/DLT698.c ****     {
 1929              		.loc 1 295 0
 1930 04ec 012A     		cmp	r2, #1
 1931 04ee 02D1     		bne	.L151
 1932              	.LVL384:
 298:../user/source/DLT698.c ****     }
 1933              		.loc 1 298 0
 1934 04f0 C279     		ldrb	r2, [r0, #7]	@ zero_extendqisi2
 1935              	.LVL385:
 297:../user/source/DLT698.c ****         return (ucRcvBuf[1]);
 1936              		.loc 1 297 0
 1937 04f2 0224     		movs	r4, #2
 1938 04f4 16E0     		b	.L150
 1939              	.LVL386:
 1940              	.L151:
 300:../user/source/DLT698.c ****     {
 1941              		.loc 1 300 0
 1942 04f6 022A     		cmp	r2, #2
 1943 04f8 05D1     		bne	.L152
 1944              	.LVL387:
 303:../user/source/DLT698.c ****     }
 1945              		.loc 1 303 0
 1946 04fa C279     		ldrb	r2, [r0, #7]	@ zero_extendqisi2
 1947              	.LVL388:
 1948 04fc 037A     		ldrb	r3, [r0, #8]	@ zero_extendqisi2
 1949 04fe 43EA0222 		orr	r2, r3, r2, lsl #8
 302:../user/source/DLT698.c ****         return ((ucRcvBuf[1] << 8) | (ucRcvBuf[2]));
 1950              		.loc 1 302 0
 1951 0502 0324     		movs	r4, #3
 1952 0504 0EE0     		b	.L150
 1953              	.LVL389:
 1954              	.L152:
 305:../user/source/DLT698.c ****     {
 1955              		.loc 1 305 0
 1956 0506 032A     		cmp	r2, #3
 1957 0508 03D1     		bne	.L153
 1958              	.LVL390:
 308:../user/source/DLT698.c ****                 (ucRcvBuf[2] << 8) & (ucRcvBuf[3]));
 1959              		.loc 1 308 0
 1960 050a C279     		ldrb	r2, [r0, #7]	@ zero_extendqisi2
 1961              	.LVL391:
 1962 050c 1204     		lsls	r2, r2, #16
 307:../user/source/DLT698.c ****         return ((ucRcvBuf[1] << 16) |
 1963              		.loc 1 307 0
 1964 050e 0424     		movs	r4, #4
 1965 0510 08E0     		b	.L150
 1966              	.LVL392:
 1967              	.L153:
 311:../user/source/DLT698.c ****     {
 1968              		.loc 1 311 0
 1969 0512 042A     		cmp	r2, #4
 1970 0514 03D1     		bne	.L214
 1971              	.LVL393:
ARM GAS  C:\Users\strag\AppData\Local\Temp\cc3UPhIa.s 			page 73


 314:../user/source/DLT698.c ****                 (ucRcvBuf[2] << 16) & (ucRcvBuf[3] << 8) & (ucRcvBuf[4]));
 1972              		.loc 1 314 0
 1973 0516 C279     		ldrb	r2, [r0, #7]	@ zero_extendqisi2
 1974              	.LVL394:
 1975 0518 1206     		lsls	r2, r2, #24
 313:../user/source/DLT698.c ****         return ((ucRcvBuf[1] << 24) |
 1976              		.loc 1 313 0
 1977 051a 0524     		movs	r4, #5
 1978 051c 02E0     		b	.L150
 1979              	.LVL395:
 1980              	.L214:
 1981              	.LBE101:
 1982              	.LBE100:
 848:../user/source/DLT698.c **** 
 1983              		.loc 1 848 0
 1984 051e 0024     		movs	r4, #0
 1985              	.LBB103:
 1986              	.LBB102:
 318:../user/source/DLT698.c **** }
 1987              		.loc 1 318 0
 1988 0520 4FF0FF32 		mov	r2, #-1
 1989              	.LVL396:
 1990              	.L150:
 1991              	.LBE102:
 1992              	.LBE103:
1260:../user/source/DLT698.c ****             {
 1993              		.loc 1 1260 0
 1994 0524 002A     		cmp	r2, #0
 1995 0526 C0F26381 		blt	.L215
1265:../user/source/DLT698.c ****             Ptr += LenBytes;
 1996              		.loc 1 1265 0
 1997 052a 0634     		adds	r4, r4, #6
 1998              	.LVL397:
1269:../user/source/DLT698.c ****             {
 1999              		.loc 1 1269 0
 2000 052c 0023     		movs	r3, #0
 2001 052e 05E0     		b	.L154
 2002              	.LVL398:
 2003              	.L155:
1271:../user/source/DLT698.c ****                 {
 2004              		.loc 1 1271 0
 2005 0530 A542     		cmp	r5, r4
 2006 0532 C0F26181 		blt	.L216
1277:../user/source/DLT698.c ****             }
 2007              		.loc 1 1277 0 discriminator 2
 2008 0536 0434     		adds	r4, r4, #4
 2009              	.LVL399:
 2010 0538 A4B2     		uxth	r4, r4
 2011              	.LVL400:
1269:../user/source/DLT698.c ****             {
 2012              		.loc 1 1269 0 discriminator 2
 2013 053a 0133     		adds	r3, r3, #1
 2014              	.LVL401:
 2015              	.L154:
1269:../user/source/DLT698.c ****             {
 2016              		.loc 1 1269 0 is_stmt 0 discriminator 1
 2017 053c 9342     		cmp	r3, r2
ARM GAS  C:\Users\strag\AppData\Local\Temp\cc3UPhIa.s 			page 74


 2018 053e F7DB     		blt	.L155
 2019 0540 0FE1     		b	.L62
 2020              	.LVL402:
 2021              	.L90:
1288:../user/source/DLT698.c ****         {
 2022              		.loc 1 1288 0 is_stmt 1
 2023 0542 691E     		subs	r1, r5, #1
 2024 0544 1046     		mov	r0, r2
 2025              	.LVL403:
 2026 0546 FFF7FEFF 		bl	dwDlt698MsLen
 2027              	.LVL404:
 2028 054a 0028     		cmp	r0, #0
 2029 054c C0F25881 		blt	.L217
 2030              	.LVL405:
1294:../user/source/DLT698.c ****     }
 2031              		.loc 1 1294 0
 2032 0550 0130     		adds	r0, r0, #1
 2033              	.LVL406:
 2034 0552 84B2     		uxth	r4, r0
 2035              	.LVL407:
1296:../user/source/DLT698.c ****     case DL_SID:
 2036              		.loc 1 1296 0
 2037 0554 05E1     		b	.L62
 2038              	.LVL408:
 2039              	.L91:
 2040              	.LBB104:
 2041              	.LBB105:
 287:../user/source/DLT698.c ****     {
 2042              		.loc 1 287 0
 2043 0556 4479     		ldrb	r4, [r0, #5]	@ zero_extendqisi2
 2044 0558 14F0800F 		tst	r4, #128
 2045 055c 01D1     		bne	.L156
 2046              	.LVL409:
 289:../user/source/DLT698.c ****         return ucRcvBuf[0];
 2047              		.loc 1 289 0
 2048 055e 0123     		movs	r3, #1
 2049 0560 1DE0     		b	.L157
 2050              	.LVL410:
 2051              	.L156:
 293:../user/source/DLT698.c **** 
 2052              		.loc 1 293 0
 2053 0562 04F07F04 		and	r4, r4, #127
 2054              	.LVL411:
 295:../user/source/DLT698.c ****     {
 2055              		.loc 1 295 0
 2056 0566 012C     		cmp	r4, #1
 2057 0568 02D1     		bne	.L158
 2058              	.LVL412:
 298:../user/source/DLT698.c ****     }
 2059              		.loc 1 298 0
 2060 056a 8479     		ldrb	r4, [r0, #6]	@ zero_extendqisi2
 2061              	.LVL413:
 297:../user/source/DLT698.c ****         return (ucRcvBuf[1]);
 2062              		.loc 1 297 0
 2063 056c 0223     		movs	r3, #2
 2064 056e 16E0     		b	.L157
 2065              	.LVL414:
ARM GAS  C:\Users\strag\AppData\Local\Temp\cc3UPhIa.s 			page 75


 2066              	.L158:
 300:../user/source/DLT698.c ****     {
 2067              		.loc 1 300 0
 2068 0570 022C     		cmp	r4, #2
 2069 0572 05D1     		bne	.L159
 2070              	.LVL415:
 303:../user/source/DLT698.c ****     }
 2071              		.loc 1 303 0
 2072 0574 8479     		ldrb	r4, [r0, #6]	@ zero_extendqisi2
 2073              	.LVL416:
 2074 0576 C379     		ldrb	r3, [r0, #7]	@ zero_extendqisi2
 2075 0578 43EA0424 		orr	r4, r3, r4, lsl #8
 302:../user/source/DLT698.c ****         return ((ucRcvBuf[1] << 8) | (ucRcvBuf[2]));
 2076              		.loc 1 302 0
 2077 057c 0323     		movs	r3, #3
 2078 057e 0EE0     		b	.L157
 2079              	.LVL417:
 2080              	.L159:
 305:../user/source/DLT698.c ****     {
 2081              		.loc 1 305 0
 2082 0580 032C     		cmp	r4, #3
 2083 0582 03D1     		bne	.L160
 2084              	.LVL418:
 308:../user/source/DLT698.c ****                 (ucRcvBuf[2] << 8) & (ucRcvBuf[3]));
 2085              		.loc 1 308 0
 2086 0584 8479     		ldrb	r4, [r0, #6]	@ zero_extendqisi2
 2087              	.LVL419:
 2088 0586 2404     		lsls	r4, r4, #16
 307:../user/source/DLT698.c ****         return ((ucRcvBuf[1] << 16) |
 2089              		.loc 1 307 0
 2090 0588 0423     		movs	r3, #4
 2091 058a 08E0     		b	.L157
 2092              	.LVL420:
 2093              	.L160:
 311:../user/source/DLT698.c ****     {
 2094              		.loc 1 311 0
 2095 058c 042C     		cmp	r4, #4
 2096 058e 03D1     		bne	.L218
 2097              	.LVL421:
 314:../user/source/DLT698.c ****                 (ucRcvBuf[2] << 16) & (ucRcvBuf[3] << 8) & (ucRcvBuf[4]));
 2098              		.loc 1 314 0
 2099 0590 8479     		ldrb	r4, [r0, #6]	@ zero_extendqisi2
 2100              	.LVL422:
 2101 0592 2406     		lsls	r4, r4, #24
 313:../user/source/DLT698.c ****         return ((ucRcvBuf[1] << 24) |
 2102              		.loc 1 313 0
 2103 0594 0523     		movs	r3, #5
 2104 0596 02E0     		b	.L157
 2105              	.LVL423:
 2106              	.L218:
 2107              	.LBE105:
 2108              	.LBE104:
 848:../user/source/DLT698.c **** 
 2109              		.loc 1 848 0
 2110 0598 0023     		movs	r3, #0
 2111              	.LBB107:
 2112              	.LBB106:
ARM GAS  C:\Users\strag\AppData\Local\Temp\cc3UPhIa.s 			page 76


 318:../user/source/DLT698.c **** }
 2113              		.loc 1 318 0
 2114 059a 4FF0FF34 		mov	r4, #-1
 2115              	.LVL424:
 2116              	.L157:
 2117              	.LBE106:
 2118              	.LBE107:
1304:../user/source/DLT698.c ****         {
 2119              		.loc 1 1304 0
 2120 059e 002C     		cmp	r4, #0
 2121 05a0 C0F23281 		blt	.L219
1309:../user/source/DLT698.c ****         Ptr += LenBytes;
 2122              		.loc 1 1309 0
 2123 05a4 0533     		adds	r3, r3, #5
 2124              	.LVL425:
1313:../user/source/DLT698.c ****     }
 2125              		.loc 1 1313 0
 2126 05a6 1C44     		add	r4, r4, r3
 2127 05a8 A4B2     		uxth	r4, r4
 2128              	.LVL426:
1315:../user/source/DLT698.c ****     case DL_SID_MAC:
 2129              		.loc 1 1315 0
 2130 05aa DAE0     		b	.L62
 2131              	.LVL427:
 2132              	.L92:
1319:../user/source/DLT698.c ****         Len += 4;
 2133              		.loc 1 1319 0
 2134 05ac 441D     		adds	r4, r0, #5
 2135              	.LVL428:
 2136              	.LBB108:
 2137              	.LBB109:
 287:../user/source/DLT698.c ****     {
 2138              		.loc 1 287 0
 2139 05ae 4379     		ldrb	r3, [r0, #5]	@ zero_extendqisi2
 2140 05b0 13F0800F 		tst	r3, #128
 2141 05b4 01D1     		bne	.L161
 2142              	.LVL429:
 289:../user/source/DLT698.c ****         return ucRcvBuf[0];
 2143              		.loc 1 289 0
 2144 05b6 0122     		movs	r2, #1
 2145 05b8 1DE0     		b	.L162
 2146              	.LVL430:
 2147              	.L161:
 293:../user/source/DLT698.c **** 
 2148              		.loc 1 293 0
 2149 05ba 03F07F03 		and	r3, r3, #127
 2150              	.LVL431:
 295:../user/source/DLT698.c ****     {
 2151              		.loc 1 295 0
 2152 05be 012B     		cmp	r3, #1
 2153 05c0 02D1     		bne	.L163
 2154              	.LVL432:
 298:../user/source/DLT698.c ****     }
 2155              		.loc 1 298 0
 2156 05c2 8379     		ldrb	r3, [r0, #6]	@ zero_extendqisi2
 2157              	.LVL433:
 297:../user/source/DLT698.c ****         return (ucRcvBuf[1]);
ARM GAS  C:\Users\strag\AppData\Local\Temp\cc3UPhIa.s 			page 77


 2158              		.loc 1 297 0
 2159 05c4 0222     		movs	r2, #2
 2160 05c6 16E0     		b	.L162
 2161              	.LVL434:
 2162              	.L163:
 300:../user/source/DLT698.c ****     {
 2163              		.loc 1 300 0
 2164 05c8 022B     		cmp	r3, #2
 2165 05ca 05D1     		bne	.L164
 2166              	.LVL435:
 303:../user/source/DLT698.c ****     }
 2167              		.loc 1 303 0
 2168 05cc 8279     		ldrb	r2, [r0, #6]	@ zero_extendqisi2
 2169 05ce C379     		ldrb	r3, [r0, #7]	@ zero_extendqisi2
 2170              	.LVL436:
 2171 05d0 43EA0223 		orr	r3, r3, r2, lsl #8
 302:../user/source/DLT698.c ****         return ((ucRcvBuf[1] << 8) | (ucRcvBuf[2]));
 2172              		.loc 1 302 0
 2173 05d4 0322     		movs	r2, #3
 2174 05d6 0EE0     		b	.L162
 2175              	.LVL437:
 2176              	.L164:
 305:../user/source/DLT698.c ****     {
 2177              		.loc 1 305 0
 2178 05d8 032B     		cmp	r3, #3
 2179 05da 03D1     		bne	.L165
 2180              	.LVL438:
 308:../user/source/DLT698.c ****                 (ucRcvBuf[2] << 8) & (ucRcvBuf[3]));
 2181              		.loc 1 308 0
 2182 05dc 8379     		ldrb	r3, [r0, #6]	@ zero_extendqisi2
 2183              	.LVL439:
 2184 05de 1B04     		lsls	r3, r3, #16
 307:../user/source/DLT698.c ****         return ((ucRcvBuf[1] << 16) |
 2185              		.loc 1 307 0
 2186 05e0 0422     		movs	r2, #4
 2187 05e2 08E0     		b	.L162
 2188              	.LVL440:
 2189              	.L165:
 311:../user/source/DLT698.c ****     {
 2190              		.loc 1 311 0
 2191 05e4 042B     		cmp	r3, #4
 2192 05e6 03D1     		bne	.L220
 2193              	.LVL441:
 314:../user/source/DLT698.c ****                 (ucRcvBuf[2] << 16) & (ucRcvBuf[3] << 8) & (ucRcvBuf[4]));
 2194              		.loc 1 314 0
 2195 05e8 8379     		ldrb	r3, [r0, #6]	@ zero_extendqisi2
 2196              	.LVL442:
 2197 05ea 1B06     		lsls	r3, r3, #24
 313:../user/source/DLT698.c ****         return ((ucRcvBuf[1] << 24) |
 2198              		.loc 1 313 0
 2199 05ec 0522     		movs	r2, #5
 2200 05ee 02E0     		b	.L162
 2201              	.LVL443:
 2202              	.L220:
 2203              	.LBE109:
 2204              	.LBE108:
 848:../user/source/DLT698.c **** 
ARM GAS  C:\Users\strag\AppData\Local\Temp\cc3UPhIa.s 			page 78


 2205              		.loc 1 848 0
 2206 05f0 0022     		movs	r2, #0
 2207              	.LBB111:
 2208              	.LBB110:
 318:../user/source/DLT698.c **** }
 2209              		.loc 1 318 0
 2210 05f2 4FF0FF33 		mov	r3, #-1
 2211              	.LVL444:
 2212              	.L162:
 2213              	.LBE110:
 2214              	.LBE111:
1322:../user/source/DLT698.c ****         {
 2215              		.loc 1 1322 0
 2216 05f6 002B     		cmp	r3, #0
 2217 05f8 C0F20A81 		blt	.L221
1327:../user/source/DLT698.c ****         Ptr += LenBytes;
 2218              		.loc 1 1327 0
 2219 05fc 511D     		adds	r1, r2, #5
 2220              	.LVL445:
1330:../user/source/DLT698.c ****         Len += varLen;
 2221              		.loc 1 1330 0
 2222 05fe D018     		adds	r0, r2, r3
 2223              	.LVL446:
 2224 0600 2618     		adds	r6, r4, r0
 2225              	.LVL447:
1331:../user/source/DLT698.c **** 
 2226              		.loc 1 1331 0
 2227 0602 0B44     		add	r3, r3, r1
 2228 0604 9BB2     		uxth	r3, r3
 2229              	.LVL448:
 2230              	.LBB112:
 2231              	.LBB113:
 287:../user/source/DLT698.c ****     {
 2232              		.loc 1 287 0
 2233 0606 245C     		ldrb	r4, [r4, r0]	@ zero_extendqisi2
 2234              	.LVL449:
 2235 0608 14F0800F 		tst	r4, #128
 2236 060c 01D1     		bne	.L166
 2237              	.LVL450:
 289:../user/source/DLT698.c ****         return ucRcvBuf[0];
 2238              		.loc 1 289 0
 2239 060e 0122     		movs	r2, #1
 2240 0610 1CE0     		b	.L167
 2241              	.LVL451:
 2242              	.L166:
 293:../user/source/DLT698.c **** 
 2243              		.loc 1 293 0
 2244 0612 04F07F04 		and	r4, r4, #127
 2245              	.LVL452:
 295:../user/source/DLT698.c ****     {
 2246              		.loc 1 295 0
 2247 0616 012C     		cmp	r4, #1
 2248 0618 02D1     		bne	.L168
 2249              	.LVL453:
 298:../user/source/DLT698.c ****     }
 2250              		.loc 1 298 0
 2251 061a 7478     		ldrb	r4, [r6, #1]	@ zero_extendqisi2
ARM GAS  C:\Users\strag\AppData\Local\Temp\cc3UPhIa.s 			page 79


 2252              	.LVL454:
 297:../user/source/DLT698.c ****         return (ucRcvBuf[1]);
 2253              		.loc 1 297 0
 2254 061c 0222     		movs	r2, #2
 2255 061e 15E0     		b	.L167
 2256              	.LVL455:
 2257              	.L168:
 300:../user/source/DLT698.c ****     {
 2258              		.loc 1 300 0
 2259 0620 022C     		cmp	r4, #2
 2260 0622 05D1     		bne	.L169
 2261              	.LVL456:
 303:../user/source/DLT698.c ****     }
 2262              		.loc 1 303 0
 2263 0624 7478     		ldrb	r4, [r6, #1]	@ zero_extendqisi2
 2264              	.LVL457:
 2265 0626 B278     		ldrb	r2, [r6, #2]	@ zero_extendqisi2
 2266 0628 42EA0424 		orr	r4, r2, r4, lsl #8
 302:../user/source/DLT698.c ****         return ((ucRcvBuf[1] << 8) | (ucRcvBuf[2]));
 2267              		.loc 1 302 0
 2268 062c 0322     		movs	r2, #3
 2269 062e 0DE0     		b	.L167
 2270              	.LVL458:
 2271              	.L169:
 305:../user/source/DLT698.c ****     {
 2272              		.loc 1 305 0
 2273 0630 032C     		cmp	r4, #3
 2274 0632 03D1     		bne	.L170
 2275              	.LVL459:
 308:../user/source/DLT698.c ****                 (ucRcvBuf[2] << 8) & (ucRcvBuf[3]));
 2276              		.loc 1 308 0
 2277 0634 7478     		ldrb	r4, [r6, #1]	@ zero_extendqisi2
 2278              	.LVL460:
 2279 0636 2404     		lsls	r4, r4, #16
 307:../user/source/DLT698.c ****         return ((ucRcvBuf[1] << 16) |
 2280              		.loc 1 307 0
 2281 0638 0422     		movs	r2, #4
 2282 063a 07E0     		b	.L167
 2283              	.LVL461:
 2284              	.L170:
 311:../user/source/DLT698.c ****     {
 2285              		.loc 1 311 0
 2286 063c 042C     		cmp	r4, #4
 2287 063e 03D1     		bne	.L222
 2288              	.LVL462:
 314:../user/source/DLT698.c ****                 (ucRcvBuf[2] << 16) & (ucRcvBuf[3] << 8) & (ucRcvBuf[4]));
 2289              		.loc 1 314 0
 2290 0640 7478     		ldrb	r4, [r6, #1]	@ zero_extendqisi2
 2291              	.LVL463:
 2292 0642 2406     		lsls	r4, r4, #24
 313:../user/source/DLT698.c ****         return ((ucRcvBuf[1] << 24) |
 2293              		.loc 1 313 0
 2294 0644 0522     		movs	r2, #5
 2295 0646 01E0     		b	.L167
 2296              	.LVL464:
 2297              	.L222:
 318:../user/source/DLT698.c **** }
ARM GAS  C:\Users\strag\AppData\Local\Temp\cc3UPhIa.s 			page 80


 2298              		.loc 1 318 0
 2299 0648 4FF0FF34 		mov	r4, #-1
 2300              	.LVL465:
 2301              	.L167:
 2302              	.LBE113:
 2303              	.LBE112:
1334:../user/source/DLT698.c ****         {
 2304              		.loc 1 1334 0
 2305 064c 002C     		cmp	r4, #0
 2306 064e C0F2E380 		blt	.L223
1339:../user/source/DLT698.c ****         Ptr += LenBytes;
 2307              		.loc 1 1339 0
 2308 0652 1344     		add	r3, r3, r2
 2309              	.LVL466:
1343:../user/source/DLT698.c ****     }
 2310              		.loc 1 1343 0
 2311 0654 14FA83F4 		uxtah	r4, r4, r3
 2312 0658 A4B2     		uxth	r4, r4
 2313              	.LVL467:
1345:../user/source/DLT698.c ****     case DL_COMDCB:
 2314              		.loc 1 1345 0
 2315 065a 82E0     		b	.L62
 2316              	.LVL468:
 2317              	.L93:
1349:../user/source/DLT698.c ****     }
 2318              		.loc 1 1349 0
 2319 065c 0624     		movs	r4, #6
1351:../user/source/DLT698.c ****     case DL_RCSD:
 2320              		.loc 1 1351 0
 2321 065e 80E0     		b	.L62
 2322              	.LVL469:
 2323              	.L94:
 2324              	.LBB114:
 2325              	.LBB115:
 287:../user/source/DLT698.c ****     {
 2326              		.loc 1 287 0
 2327 0660 4678     		ldrb	r6, [r0, #1]	@ zero_extendqisi2
 2328 0662 16F0800F 		tst	r6, #128
 2329 0666 02D1     		bne	.L171
 2330              	.LVL470:
 289:../user/source/DLT698.c ****         return ucRcvBuf[0];
 2331              		.loc 1 289 0
 2332 0668 4FF0010E 		mov	lr, #1
 2333 066c 22E0     		b	.L172
 2334              	.LVL471:
 2335              	.L171:
 293:../user/source/DLT698.c **** 
 2336              		.loc 1 293 0
 2337 066e 06F07F06 		and	r6, r6, #127
 2338              	.LVL472:
 295:../user/source/DLT698.c ****     {
 2339              		.loc 1 295 0
 2340 0672 012E     		cmp	r6, #1
 2341 0674 03D1     		bne	.L173
 2342              	.LVL473:
 298:../user/source/DLT698.c ****     }
 2343              		.loc 1 298 0
ARM GAS  C:\Users\strag\AppData\Local\Temp\cc3UPhIa.s 			page 81


 2344 0676 8678     		ldrb	r6, [r0, #2]	@ zero_extendqisi2
 2345              	.LVL474:
 297:../user/source/DLT698.c ****         return (ucRcvBuf[1]);
 2346              		.loc 1 297 0
 2347 0678 4FF0020E 		mov	lr, #2
 2348 067c 1AE0     		b	.L172
 2349              	.LVL475:
 2350              	.L173:
 300:../user/source/DLT698.c ****     {
 2351              		.loc 1 300 0
 2352 067e 022E     		cmp	r6, #2
 2353 0680 06D1     		bne	.L174
 2354              	.LVL476:
 303:../user/source/DLT698.c ****     }
 2355              		.loc 1 303 0
 2356 0682 8678     		ldrb	r6, [r0, #2]	@ zero_extendqisi2
 2357              	.LVL477:
 2358 0684 C378     		ldrb	r3, [r0, #3]	@ zero_extendqisi2
 2359 0686 43EA0626 		orr	r6, r3, r6, lsl #8
 302:../user/source/DLT698.c ****         return ((ucRcvBuf[1] << 8) | (ucRcvBuf[2]));
 2360              		.loc 1 302 0
 2361 068a 4FF0030E 		mov	lr, #3
 2362 068e 11E0     		b	.L172
 2363              	.LVL478:
 2364              	.L174:
 305:../user/source/DLT698.c ****     {
 2365              		.loc 1 305 0
 2366 0690 032E     		cmp	r6, #3
 2367 0692 04D1     		bne	.L175
 2368              	.LVL479:
 308:../user/source/DLT698.c ****                 (ucRcvBuf[2] << 8) & (ucRcvBuf[3]));
 2369              		.loc 1 308 0
 2370 0694 8678     		ldrb	r6, [r0, #2]	@ zero_extendqisi2
 2371              	.LVL480:
 2372 0696 3604     		lsls	r6, r6, #16
 307:../user/source/DLT698.c ****         return ((ucRcvBuf[1] << 16) |
 2373              		.loc 1 307 0
 2374 0698 4FF0040E 		mov	lr, #4
 2375 069c 0AE0     		b	.L172
 2376              	.LVL481:
 2377              	.L175:
 311:../user/source/DLT698.c ****     {
 2378              		.loc 1 311 0
 2379 069e 042E     		cmp	r6, #4
 2380 06a0 04D1     		bne	.L224
 2381              	.LVL482:
 314:../user/source/DLT698.c ****                 (ucRcvBuf[2] << 16) & (ucRcvBuf[3] << 8) & (ucRcvBuf[4]));
 2382              		.loc 1 314 0
 2383 06a2 8678     		ldrb	r6, [r0, #2]	@ zero_extendqisi2
 2384              	.LVL483:
 2385 06a4 3606     		lsls	r6, r6, #24
 313:../user/source/DLT698.c ****         return ((ucRcvBuf[1] << 24) |
 2386              		.loc 1 313 0
 2387 06a6 4FF0050E 		mov	lr, #5
 2388 06aa 03E0     		b	.L172
 2389              	.LVL484:
 2390              	.L224:
ARM GAS  C:\Users\strag\AppData\Local\Temp\cc3UPhIa.s 			page 82


 2391              	.LBE115:
 2392              	.LBE114:
 848:../user/source/DLT698.c **** 
 2393              		.loc 1 848 0
 2394 06ac 4FF0000E 		mov	lr, #0
 2395              	.LBB117:
 2396              	.LBB116:
 318:../user/source/DLT698.c **** }
 2397              		.loc 1 318 0
 2398 06b0 4FF0FF36 		mov	r6, #-1
 2399              	.LVL485:
 2400              	.L172:
 2401              	.LBE116:
 2402              	.LBE117:
1355:../user/source/DLT698.c ****         {
 2403              		.loc 1 1355 0
 2404 06b4 002E     		cmp	r6, #0
 2405 06b6 C0F2B380 		blt	.L225
1360:../user/source/DLT698.c ****         Ptr += LenBytes;
 2406              		.loc 1 1360 0
 2407 06ba 0EF10104 		add	r4, lr, #1
 2408              	.LVL486:
1361:../user/source/DLT698.c **** 
 2409              		.loc 1 1361 0
 2410 06be 02EB0E03 		add	r3, r2, lr
 2411              	.LVL487:
1364:../user/source/DLT698.c ****         {
 2412              		.loc 1 1364 0
 2413 06c2 0027     		movs	r7, #0
 2414 06c4 47E0     		b	.L176
 2415              	.LVL488:
 2416              	.L186:
1366:../user/source/DLT698.c ****             {
 2417              		.loc 1 1366 0
 2418 06c6 A542     		cmp	r5, r4
 2419 06c8 C0F2AE80 		blt	.L226
1371:../user/source/DLT698.c ****             {
 2420              		.loc 1 1371 0
 2421 06cc 1A78     		ldrb	r2, [r3]	@ zero_extendqisi2
 2422 06ce 1AB9     		cbnz	r2, .L177
 2423              	.LVL489:
1376:../user/source/DLT698.c ****                 Len += 4;
 2424              		.loc 1 1376 0
 2425 06d0 0533     		adds	r3, r3, #5
 2426              	.LVL490:
1377:../user/source/DLT698.c ****             }
 2427              		.loc 1 1377 0
 2428 06d2 0534     		adds	r4, r4, #5
 2429              	.LVL491:
 2430 06d4 A4B2     		uxth	r4, r4
 2431              	.LVL492:
 2432 06d6 3DE0     		b	.L178
 2433              	.L177:
1379:../user/source/DLT698.c ****             {
 2434              		.loc 1 1379 0
 2435 06d8 012A     		cmp	r2, #1
 2436 06da 40F0A980 		bne	.L227
ARM GAS  C:\Users\strag\AppData\Local\Temp\cc3UPhIa.s 			page 83


 2437              	.LVL493:
1384:../user/source/DLT698.c ****                 Len += 4;
 2438              		.loc 1 1384 0
 2439 06de 5A1D     		adds	r2, r3, #5
 2440              	.LVL494:
1385:../user/source/DLT698.c **** 
 2441              		.loc 1 1385 0
 2442 06e0 0534     		adds	r4, r4, #5
 2443              	.LVL495:
 2444 06e2 A4B2     		uxth	r4, r4
 2445              	.LVL496:
 2446              	.LBB118:
 2447              	.LBB119:
 287:../user/source/DLT698.c ****     {
 2448              		.loc 1 287 0
 2449 06e4 5979     		ldrb	r1, [r3, #5]	@ zero_extendqisi2
 2450 06e6 11F0800F 		tst	r1, #128
 2451 06ea 02D1     		bne	.L179
 2452              	.LVL497:
 289:../user/source/DLT698.c ****         return ucRcvBuf[0];
 2453              		.loc 1 289 0
 2454 06ec 4FF0010E 		mov	lr, #1
 2455 06f0 20E0     		b	.L180
 2456              	.LVL498:
 2457              	.L179:
 293:../user/source/DLT698.c **** 
 2458              		.loc 1 293 0
 2459 06f2 01F07F01 		and	r1, r1, #127
 2460              	.LVL499:
 295:../user/source/DLT698.c ****     {
 2461              		.loc 1 295 0
 2462 06f6 0129     		cmp	r1, #1
 2463 06f8 03D1     		bne	.L181
 2464              	.LVL500:
 298:../user/source/DLT698.c ****     }
 2465              		.loc 1 298 0
 2466 06fa 9979     		ldrb	r1, [r3, #6]	@ zero_extendqisi2
 2467              	.LVL501:
 297:../user/source/DLT698.c ****         return (ucRcvBuf[1]);
 2468              		.loc 1 297 0
 2469 06fc 4FF0020E 		mov	lr, #2
 2470 0700 18E0     		b	.L180
 2471              	.LVL502:
 2472              	.L181:
 300:../user/source/DLT698.c ****     {
 2473              		.loc 1 300 0
 2474 0702 0229     		cmp	r1, #2
 2475 0704 06D1     		bne	.L182
 2476              	.LVL503:
 303:../user/source/DLT698.c ****     }
 2477              		.loc 1 303 0
 2478 0706 9979     		ldrb	r1, [r3, #6]	@ zero_extendqisi2
 2479              	.LVL504:
 2480 0708 DB79     		ldrb	r3, [r3, #7]	@ zero_extendqisi2
 2481 070a 43EA0121 		orr	r1, r3, r1, lsl #8
 302:../user/source/DLT698.c ****         return ((ucRcvBuf[1] << 8) | (ucRcvBuf[2]));
 2482              		.loc 1 302 0
ARM GAS  C:\Users\strag\AppData\Local\Temp\cc3UPhIa.s 			page 84


 2483 070e 4FF0030E 		mov	lr, #3
 2484 0712 0FE0     		b	.L180
 2485              	.LVL505:
 2486              	.L182:
 305:../user/source/DLT698.c ****     {
 2487              		.loc 1 305 0
 2488 0714 0329     		cmp	r1, #3
 2489 0716 04D1     		bne	.L183
 2490              	.LVL506:
 308:../user/source/DLT698.c ****                 (ucRcvBuf[2] << 8) & (ucRcvBuf[3]));
 2491              		.loc 1 308 0
 2492 0718 9979     		ldrb	r1, [r3, #6]	@ zero_extendqisi2
 2493              	.LVL507:
 2494 071a 0904     		lsls	r1, r1, #16
 307:../user/source/DLT698.c ****         return ((ucRcvBuf[1] << 16) |
 2495              		.loc 1 307 0
 2496 071c 4FF0040E 		mov	lr, #4
 2497 0720 08E0     		b	.L180
 2498              	.LVL508:
 2499              	.L183:
 311:../user/source/DLT698.c ****     {
 2500              		.loc 1 311 0
 2501 0722 0429     		cmp	r1, #4
 2502 0724 04D1     		bne	.L228
 2503              	.LVL509:
 314:../user/source/DLT698.c ****                 (ucRcvBuf[2] << 16) & (ucRcvBuf[3] << 8) & (ucRcvBuf[4]));
 2504              		.loc 1 314 0
 2505 0726 9979     		ldrb	r1, [r3, #6]	@ zero_extendqisi2
 2506              	.LVL510:
 2507 0728 0906     		lsls	r1, r1, #24
 313:../user/source/DLT698.c ****         return ((ucRcvBuf[1] << 24) |
 2508              		.loc 1 313 0
 2509 072a 4FF0050E 		mov	lr, #5
 2510 072e 01E0     		b	.L180
 2511              	.LVL511:
 2512              	.L228:
 318:../user/source/DLT698.c **** }
 2513              		.loc 1 318 0
 2514 0730 4FF0FF31 		mov	r1, #-1
 2515              	.LVL512:
 2516              	.L180:
 2517              	.LBE119:
 2518              	.LBE118:
1388:../user/source/DLT698.c ****                 {
 2519              		.loc 1 1388 0
 2520 0734 0029     		cmp	r1, #0
 2521 0736 7FDB     		blt	.L229
1393:../user/source/DLT698.c ****                 Ptr += LenBytes;
 2522              		.loc 1 1393 0
 2523 0738 7444     		add	r4, r4, lr
 2524              	.LVL513:
 2525 073a A4B2     		uxth	r4, r4
 2526              	.LVL514:
1394:../user/source/DLT698.c **** 
 2527              		.loc 1 1394 0
 2528 073c 02EB0E03 		add	r3, r2, lr
 2529              	.LVL515:
ARM GAS  C:\Users\strag\AppData\Local\Temp\cc3UPhIa.s 			page 85


1397:../user/source/DLT698.c ****                 {
 2530              		.loc 1 1397 0
 2531 0740 0022     		movs	r2, #0
 2532 0742 05E0     		b	.L184
 2533              	.LVL516:
 2534              	.L185:
1399:../user/source/DLT698.c ****                     {
 2535              		.loc 1 1399 0
 2536 0744 A542     		cmp	r5, r4
 2537 0746 7BDB     		blt	.L230
1404:../user/source/DLT698.c ****                     Len += 4;
 2538              		.loc 1 1404 0 discriminator 2
 2539 0748 0433     		adds	r3, r3, #4
 2540              	.LVL517:
1405:../user/source/DLT698.c ****                 }
 2541              		.loc 1 1405 0 discriminator 2
 2542 074a 0434     		adds	r4, r4, #4
 2543              	.LVL518:
 2544 074c A4B2     		uxth	r4, r4
 2545              	.LVL519:
1397:../user/source/DLT698.c ****                 {
 2546              		.loc 1 1397 0 discriminator 2
 2547 074e 0132     		adds	r2, r2, #1
 2548              	.LVL520:
 2549              	.L184:
1397:../user/source/DLT698.c ****                 {
 2550              		.loc 1 1397 0 is_stmt 0 discriminator 1
 2551 0750 8A42     		cmp	r2, r1
 2552 0752 F7DB     		blt	.L185
 2553              	.LVL521:
 2554              	.L178:
1364:../user/source/DLT698.c ****         {
 2555              		.loc 1 1364 0 is_stmt 1 discriminator 2
 2556 0754 0137     		adds	r7, r7, #1
 2557              	.LVL522:
 2558              	.L176:
1364:../user/source/DLT698.c ****         {
 2559              		.loc 1 1364 0 is_stmt 0 discriminator 1
 2560 0756 B742     		cmp	r7, r6
 2561 0758 B5DB     		blt	.L186
 2562 075a 02E0     		b	.L62
 2563              	.LVL523:
 2564              	.L188:
 915:../user/source/DLT698.c ****     }
 2565              		.loc 1 915 0 is_stmt 1
 2566 075c 0224     		movs	r4, #2
 2567 075e 00E0     		b	.L62
 2568              	.L212:
1249:../user/source/DLT698.c ****         }
 2569              		.loc 1 1249 0
 2570 0760 0624     		movs	r4, #6
 2571              	.LVL524:
 2572              	.L62:
1419:../user/source/DLT698.c ****     {
 2573              		.loc 1 1419 0
 2574 0762 2046     		mov	r0, r4
 2575 0764 A542     		cmp	r5, r4
ARM GAS  C:\Users\strag\AppData\Local\Temp\cc3UPhIa.s 			page 86


 2576 0766 6DDA     		bge	.L57
1421:../user/source/DLT698.c ****     }
 2577              		.loc 1 1421 0
 2578 0768 4FF0FF30 		mov	r0, #-1
 2579 076c BDE8F081 		pop	{r4, r5, r6, r7, r8, pc}
 2580              	.LVL525:
 2581              	.L187:
1416:../user/source/DLT698.c ****     }
 2582              		.loc 1 1416 0
 2583 0770 4FF0FF30 		mov	r0, #-1
 2584              	.LVL526:
 2585 0774 BDE8F081 		pop	{r4, r5, r6, r7, r8, pc}
 2586              	.LVL527:
 2587              	.L190:
 867:../user/source/DLT698.c ****         }
 2588              		.loc 1 867 0
 2589 0778 4FF0FF30 		mov	r0, #-1
 2590              	.LVL528:
 2591 077c BDE8F081 		pop	{r4, r5, r6, r7, r8, pc}
 2592              	.LVL529:
 2593              	.L191:
 878:../user/source/DLT698.c ****             }
 2594              		.loc 1 878 0
 2595 0780 4FF0FF30 		mov	r0, #-1
 2596              	.LVL530:
 2597 0784 BDE8F081 		pop	{r4, r5, r6, r7, r8, pc}
 2598              	.LVL531:
 2599              	.L193:
 891:../user/source/DLT698.c ****         }
 2600              		.loc 1 891 0
 2601 0788 4FF0FF30 		mov	r0, #-1
 2602              	.LVL532:
 2603 078c BDE8F081 		pop	{r4, r5, r6, r7, r8, pc}
 2604              	.LVL533:
 2605              	.L194:
 902:../user/source/DLT698.c ****             }
 2606              		.loc 1 902 0
 2607 0790 4FF0FF30 		mov	r0, #-1
 2608              	.LVL534:
 2609 0794 BDE8F081 		pop	{r4, r5, r6, r7, r8, pc}
 2610              	.LVL535:
 2611              	.L196:
 923:../user/source/DLT698.c ****         }
 2612              		.loc 1 923 0
 2613 0798 4FF0FF30 		mov	r0, #-1
 2614              	.LVL536:
 2615 079c BDE8F081 		pop	{r4, r5, r6, r7, r8, pc}
 2616              	.LVL537:
 2617              	.L198:
 963:../user/source/DLT698.c ****         }
 2618              		.loc 1 963 0
 2619 07a0 4FF0FF30 		mov	r0, #-1
 2620              	.LVL538:
 2621 07a4 BDE8F081 		pop	{r4, r5, r6, r7, r8, pc}
 2622              	.LVL539:
 2623              	.L200:
 979:../user/source/DLT698.c ****         }
ARM GAS  C:\Users\strag\AppData\Local\Temp\cc3UPhIa.s 			page 87


 2624              		.loc 1 979 0
 2625 07a8 4FF0FF30 		mov	r0, #-1
 2626              	.LVL540:
 2627 07ac BDE8F081 		pop	{r4, r5, r6, r7, r8, pc}
 2628              	.LVL541:
 2629              	.L202:
 995:../user/source/DLT698.c ****         }
 2630              		.loc 1 995 0
 2631 07b0 4FF0FF30 		mov	r0, #-1
 2632              	.LVL542:
 2633 07b4 BDE8F081 		pop	{r4, r5, r6, r7, r8, pc}
 2634              	.LVL543:
 2635              	.L204:
1134:../user/source/DLT698.c ****         }
 2636              		.loc 1 1134 0
 2637 07b8 4FF0FF30 		mov	r0, #-1
 2638              	.LVL544:
 2639 07bc BDE8F081 		pop	{r4, r5, r6, r7, r8, pc}
 2640              	.LVL545:
 2641              	.L206:
1169:../user/source/DLT698.c ****         }
 2642              		.loc 1 1169 0
 2643 07c0 4FF0FF30 		mov	r0, #-1
 2644              	.LVL546:
 2645 07c4 BDE8F081 		pop	{r4, r5, r6, r7, r8, pc}
 2646              	.LVL547:
 2647              	.L208:
1186:../user/source/DLT698.c ****         }
 2648              		.loc 1 1186 0
 2649 07c8 4FF0FF30 		mov	r0, #-1
 2650              	.LVL548:
 2651 07cc BDE8F081 		pop	{r4, r5, r6, r7, r8, pc}
 2652              	.LVL549:
 2653              	.L209:
1206:../user/source/DLT698.c ****         }
 2654              		.loc 1 1206 0
 2655 07d0 4FF0FF30 		mov	r0, #-1
 2656              	.LVL550:
 2657 07d4 BDE8F081 		pop	{r4, r5, r6, r7, r8, pc}
 2658              	.LVL551:
 2659              	.L210:
1213:../user/source/DLT698.c ****         }
 2660              		.loc 1 1213 0
 2661 07d8 4FF0FF30 		mov	r0, #-1
 2662              	.LVL552:
 2663 07dc BDE8F081 		pop	{r4, r5, r6, r7, r8, pc}
 2664              	.LVL553:
 2665              	.L211:
1234:../user/source/DLT698.c ****         }
 2666              		.loc 1 1234 0
 2667 07e0 4FF0FF30 		mov	r0, #-1
 2668              	.LVL554:
 2669 07e4 BDE8F081 		pop	{r4, r5, r6, r7, r8, pc}
 2670              	.LVL555:
 2671              	.L213:
1282:../user/source/DLT698.c ****         }
 2672              		.loc 1 1282 0
ARM GAS  C:\Users\strag\AppData\Local\Temp\cc3UPhIa.s 			page 88


 2673 07e8 4FF0FF30 		mov	r0, #-1
 2674              	.LVL556:
 2675 07ec BDE8F081 		pop	{r4, r5, r6, r7, r8, pc}
 2676              	.LVL557:
 2677              	.L215:
1262:../user/source/DLT698.c ****             }
 2678              		.loc 1 1262 0
 2679 07f0 4FF0FF30 		mov	r0, #-1
 2680              	.LVL558:
 2681 07f4 BDE8F081 		pop	{r4, r5, r6, r7, r8, pc}
 2682              	.LVL559:
 2683              	.L216:
1273:../user/source/DLT698.c ****                 }
 2684              		.loc 1 1273 0
 2685 07f8 4FF0FF30 		mov	r0, #-1
 2686              	.LVL560:
 2687 07fc BDE8F081 		pop	{r4, r5, r6, r7, r8, pc}
 2688              	.LVL561:
 2689              	.L217:
1290:../user/source/DLT698.c ****         }
 2690              		.loc 1 1290 0
 2691 0800 4FF0FF30 		mov	r0, #-1
 2692              	.LVL562:
 2693 0804 BDE8F081 		pop	{r4, r5, r6, r7, r8, pc}
 2694              	.LVL563:
 2695              	.L219:
1306:../user/source/DLT698.c ****         }
 2696              		.loc 1 1306 0
 2697 0808 4FF0FF30 		mov	r0, #-1
 2698              	.LVL564:
 2699 080c BDE8F081 		pop	{r4, r5, r6, r7, r8, pc}
 2700              	.LVL565:
 2701              	.L221:
1324:../user/source/DLT698.c ****         }
 2702              		.loc 1 1324 0
 2703 0810 4FF0FF30 		mov	r0, #-1
 2704              	.LVL566:
 2705 0814 BDE8F081 		pop	{r4, r5, r6, r7, r8, pc}
 2706              	.LVL567:
 2707              	.L223:
1336:../user/source/DLT698.c ****         }
 2708              		.loc 1 1336 0
 2709 0818 4FF0FF30 		mov	r0, #-1
 2710 081c BDE8F081 		pop	{r4, r5, r6, r7, r8, pc}
 2711              	.LVL568:
 2712              	.L225:
1357:../user/source/DLT698.c ****         }
 2713              		.loc 1 1357 0
 2714 0820 4FF0FF30 		mov	r0, #-1
 2715              	.LVL569:
 2716 0824 BDE8F081 		pop	{r4, r5, r6, r7, r8, pc}
 2717              	.LVL570:
 2718              	.L226:
1368:../user/source/DLT698.c ****             }
 2719              		.loc 1 1368 0
 2720 0828 4FF0FF30 		mov	r0, #-1
 2721              	.LVL571:
ARM GAS  C:\Users\strag\AppData\Local\Temp\cc3UPhIa.s 			page 89


 2722 082c BDE8F081 		pop	{r4, r5, r6, r7, r8, pc}
 2723              	.LVL572:
 2724              	.L227:
1410:../user/source/DLT698.c ****             }
 2725              		.loc 1 1410 0
 2726 0830 4FF0FF30 		mov	r0, #-1
 2727              	.LVL573:
 2728 0834 BDE8F081 		pop	{r4, r5, r6, r7, r8, pc}
 2729              	.LVL574:
 2730              	.L229:
1390:../user/source/DLT698.c ****                 }
 2731              		.loc 1 1390 0
 2732 0838 4FF0FF30 		mov	r0, #-1
 2733              	.LVL575:
 2734 083c BDE8F081 		pop	{r4, r5, r6, r7, r8, pc}
 2735              	.LVL576:
 2736              	.L230:
1401:../user/source/DLT698.c ****                     }
 2737              		.loc 1 1401 0
 2738 0840 4FF0FF30 		mov	r0, #-1
 2739              	.LVL577:
 2740              	.L57:
1425:../user/source/DLT698.c **** /**
 2741              		.loc 1 1425 0
 2742 0844 BDE8F081 		pop	{r4, r5, r6, r7, r8, pc}
 2743              		.cfi_endproc
 2744              	.LFE123:
 2746              		.section	.text.dwDlt698RSDLen,"ax",%progbits
 2747              		.align	2
 2748              		.thumb
 2749              		.thumb_func
 2751              	dwDlt698RSDLen:
 2752              	.LFB124:
1443:../user/source/DLT698.c ****     assert(ucRcvBuf);
 2753              		.loc 1 1443 0
 2754              		.cfi_startproc
 2755              		@ args = 0, pretend = 0, frame = 0
 2756              		@ frame_needed = 0, uses_anonymous_args = 0
 2757              	.LVL578:
 2758 0000 2DE9F041 		push	{r4, r5, r6, r7, r8, lr}
 2759              	.LCFI2:
 2760              		.cfi_def_cfa_offset 24
 2761              		.cfi_offset 4, -24
 2762              		.cfi_offset 5, -20
 2763              		.cfi_offset 6, -16
 2764              		.cfi_offset 7, -12
 2765              		.cfi_offset 8, -8
 2766              		.cfi_offset 14, -4
 2767 0004 0D46     		mov	r5, r1
 2768              	.LVL579:
1451:../user/source/DLT698.c ****     {
 2769              		.loc 1 1451 0
 2770 0006 0378     		ldrb	r3, [r0]	@ zero_extendqisi2
 2771 0008 002B     		cmp	r3, #0
 2772 000a 00F0A680 		beq	.L247
1459:../user/source/DLT698.c ****     {
 2773              		.loc 1 1459 0
ARM GAS  C:\Users\strag\AppData\Local\Temp\cc3UPhIa.s 			page 90


 2774 000e 012B     		cmp	r3, #1
 2775 0010 09D1     		bne	.L234
 2776              	.LVL580:
1467:../user/source/DLT698.c ****         { // data
 2777              		.loc 1 1467 0
 2778 0012 0539     		subs	r1, r1, #5
 2779              	.LVL581:
 2780 0014 0530     		adds	r0, r0, #5
 2781              	.LVL582:
 2782 0016 FFF7FEFF 		bl	dwDlt698DataLen
 2783              	.LVL583:
 2784 001a 0028     		cmp	r0, #0
 2785 001c C0F2A780 		blt	.L248
 2786              	.LVL584:
1472:../user/source/DLT698.c ****     }
 2787              		.loc 1 1472 0
 2788 0020 431D     		adds	r3, r0, #5
 2789 0022 9BB2     		uxth	r3, r3
 2790              	.LVL585:
 2791 0024 9CE0     		b	.L233
 2792              	.LVL586:
 2793              	.L234:
1474:../user/source/DLT698.c ****     {
 2794              		.loc 1 1474 0
 2795 0026 022B     		cmp	r3, #2
 2796 0028 1ED1     		bne	.L236
 2797              	.LVL587:
1479:../user/source/DLT698.c ****         Len += 4; // OAD
 2798              		.loc 1 1479 0
 2799 002a 00F10508 		add	r8, r0, #5
 2800              	.LVL588:
1482:../user/source/DLT698.c ****         { // start data
 2801              		.loc 1 1482 0
 2802 002e 0539     		subs	r1, r1, #5
 2803              	.LVL589:
 2804 0030 4046     		mov	r0, r8
 2805              	.LVL590:
 2806 0032 FFF7FEFF 		bl	dwDlt698DataLen
 2807              	.LVL591:
 2808 0036 0028     		cmp	r0, #0
 2809 0038 C0F29D80 		blt	.L249
1486:../user/source/DLT698.c ****         Len += Res;
 2810              		.loc 1 1486 0
 2811 003c 8044     		add	r8, r8, r0
 2812              	.LVL592:
1487:../user/source/DLT698.c **** 
 2813              		.loc 1 1487 0
 2814 003e 0530     		adds	r0, r0, #5
 2815              	.LVL593:
 2816 0040 84B2     		uxth	r4, r0
 2817              	.LVL594:
1489:../user/source/DLT698.c ****         { // end data
 2818              		.loc 1 1489 0
 2819 0042 291B     		subs	r1, r5, r4
 2820 0044 4046     		mov	r0, r8
 2821              	.LVL595:
 2822 0046 FFF7FEFF 		bl	dwDlt698DataLen
ARM GAS  C:\Users\strag\AppData\Local\Temp\cc3UPhIa.s 			page 91


 2823              	.LVL596:
 2824 004a 0028     		cmp	r0, #0
 2825 004c C0F29780 		blt	.L250
 2826              	.LVL597:
1494:../user/source/DLT698.c **** 
 2827              		.loc 1 1494 0
 2828 0050 0444     		add	r4, r4, r0
 2829              	.LVL598:
 2830 0052 A4B2     		uxth	r4, r4
 2831              	.LVL599:
1496:../user/source/DLT698.c ****         { // TI
 2832              		.loc 1 1496 0
 2833 0054 291B     		subs	r1, r5, r4
 2834 0056 4044     		add	r0, r0, r8
 2835              	.LVL600:
 2836 0058 FFF7FEFF 		bl	dwDlt698DataLen
 2837              	.LVL601:
 2838 005c 0028     		cmp	r0, #0
 2839 005e C0F29280 		blt	.L251
1501:../user/source/DLT698.c ****     }
 2840              		.loc 1 1501 0
 2841 0062 2318     		adds	r3, r4, r0
 2842 0064 9BB2     		uxth	r3, r3
 2843              	.LVL602:
 2844 0066 7BE0     		b	.L233
 2845              	.LVL603:
 2846              	.L236:
1503:../user/source/DLT698.c ****     {
 2847              		.loc 1 1503 0
 2848 0068 032B     		cmp	r3, #3
 2849 006a 4DD1     		bne	.L237
 2850              	.LVL604:
 2851              	.LBB120:
 2852              	.LBB121:
 287:../user/source/DLT698.c ****     {
 2853              		.loc 1 287 0
 2854 006c 4778     		ldrb	r7, [r0, #1]	@ zero_extendqisi2
 2855 006e 17F0800F 		tst	r7, #128
 2856 0072 01D1     		bne	.L238
 2857              	.LVL605:
 289:../user/source/DLT698.c ****         return ucRcvBuf[0];
 2858              		.loc 1 289 0
 2859 0074 0122     		movs	r2, #1
 2860 0076 1DE0     		b	.L239
 2861              	.LVL606:
 2862              	.L238:
 293:../user/source/DLT698.c **** 
 2863              		.loc 1 293 0
 2864 0078 07F07F07 		and	r7, r7, #127
 2865              	.LVL607:
 295:../user/source/DLT698.c ****     {
 2866              		.loc 1 295 0
 2867 007c 012F     		cmp	r7, #1
 2868 007e 02D1     		bne	.L240
 2869              	.LVL608:
 298:../user/source/DLT698.c ****     }
 2870              		.loc 1 298 0
ARM GAS  C:\Users\strag\AppData\Local\Temp\cc3UPhIa.s 			page 92


 2871 0080 8778     		ldrb	r7, [r0, #2]	@ zero_extendqisi2
 2872              	.LVL609:
 297:../user/source/DLT698.c ****         return (ucRcvBuf[1]);
 2873              		.loc 1 297 0
 2874 0082 0222     		movs	r2, #2
 2875 0084 16E0     		b	.L239
 2876              	.LVL610:
 2877              	.L240:
 300:../user/source/DLT698.c ****     {
 2878              		.loc 1 300 0
 2879 0086 022F     		cmp	r7, #2
 2880 0088 05D1     		bne	.L241
 2881              	.LVL611:
 303:../user/source/DLT698.c ****     }
 2882              		.loc 1 303 0
 2883 008a 8778     		ldrb	r7, [r0, #2]	@ zero_extendqisi2
 2884              	.LVL612:
 2885 008c C378     		ldrb	r3, [r0, #3]	@ zero_extendqisi2
 2886 008e 43EA0727 		orr	r7, r3, r7, lsl #8
 302:../user/source/DLT698.c ****         return ((ucRcvBuf[1] << 8) | (ucRcvBuf[2]));
 2887              		.loc 1 302 0
 2888 0092 0322     		movs	r2, #3
 2889 0094 0EE0     		b	.L239
 2890              	.LVL613:
 2891              	.L241:
 305:../user/source/DLT698.c ****     {
 2892              		.loc 1 305 0
 2893 0096 032F     		cmp	r7, #3
 2894 0098 03D1     		bne	.L242
 2895              	.LVL614:
 308:../user/source/DLT698.c ****                 (ucRcvBuf[2] << 8) & (ucRcvBuf[3]));
 2896              		.loc 1 308 0
 2897 009a 8778     		ldrb	r7, [r0, #2]	@ zero_extendqisi2
 2898              	.LVL615:
 2899 009c 3F04     		lsls	r7, r7, #16
 307:../user/source/DLT698.c ****         return ((ucRcvBuf[1] << 16) |
 2900              		.loc 1 307 0
 2901 009e 0422     		movs	r2, #4
 2902 00a0 08E0     		b	.L239
 2903              	.LVL616:
 2904              	.L242:
 311:../user/source/DLT698.c ****     {
 2905              		.loc 1 311 0
 2906 00a2 042F     		cmp	r7, #4
 2907 00a4 03D1     		bne	.L252
 2908              	.LVL617:
 314:../user/source/DLT698.c ****                 (ucRcvBuf[2] << 16) & (ucRcvBuf[3] << 8) & (ucRcvBuf[4]));
 2909              		.loc 1 314 0
 2910 00a6 8778     		ldrb	r7, [r0, #2]	@ zero_extendqisi2
 2911              	.LVL618:
 2912 00a8 3F06     		lsls	r7, r7, #24
 313:../user/source/DLT698.c ****         return ((ucRcvBuf[1] << 24) |
 2913              		.loc 1 313 0
 2914 00aa 0522     		movs	r2, #5
 2915 00ac 02E0     		b	.L239
 2916              	.LVL619:
 2917              	.L252:
ARM GAS  C:\Users\strag\AppData\Local\Temp\cc3UPhIa.s 			page 93


 2918              	.LBE121:
 2919              	.LBE120:
1449:../user/source/DLT698.c **** 
 2920              		.loc 1 1449 0
 2921 00ae 0022     		movs	r2, #0
 2922              	.LBB123:
 2923              	.LBB122:
 318:../user/source/DLT698.c **** }
 2924              		.loc 1 318 0
 2925 00b0 4FF0FF37 		mov	r7, #-1
 2926              	.LVL620:
 2927              	.L239:
 2928              	.LBE122:
 2929              	.LBE123:
1509:../user/source/DLT698.c ****         {
 2930              		.loc 1 1509 0
 2931 00b4 002F     		cmp	r7, #0
 2932 00b6 6ADB     		blt	.L253
1514:../user/source/DLT698.c ****         Ptr += LenBytes;
 2933              		.loc 1 1514 0
 2934 00b8 531C     		adds	r3, r2, #1
 2935              	.LVL621:
1515:../user/source/DLT698.c **** 
 2936              		.loc 1 1515 0
 2937 00ba 00EB0308 		add	r8, r0, r3
 2938              	.LVL622:
1517:../user/source/DLT698.c ****         {
 2939              		.loc 1 1517 0
 2940 00be 0026     		movs	r6, #0
 2941 00c0 1FE0     		b	.L243
 2942              	.LVL623:
 2943              	.L244:
1519:../user/source/DLT698.c ****             Len += 4; // OAD
 2944              		.loc 1 1519 0
 2945 00c2 08F10408 		add	r8, r8, #4
 2946              	.LVL624:
1520:../user/source/DLT698.c **** 
 2947              		.loc 1 1520 0
 2948 00c6 0433     		adds	r3, r3, #4
 2949              	.LVL625:
 2950 00c8 9CB2     		uxth	r4, r3
 2951              	.LVL626:
1522:../user/source/DLT698.c ****             { // start data
 2952              		.loc 1 1522 0
 2953 00ca 291B     		subs	r1, r5, r4
 2954 00cc 4046     		mov	r0, r8
 2955 00ce FFF7FEFF 		bl	dwDlt698DataLen
 2956              	.LVL627:
 2957 00d2 0028     		cmp	r0, #0
 2958 00d4 5FDB     		blt	.L254
1526:../user/source/DLT698.c ****             Len += Res;
 2959              		.loc 1 1526 0
 2960 00d6 8044     		add	r8, r8, r0
 2961              	.LVL628:
1527:../user/source/DLT698.c **** 
 2962              		.loc 1 1527 0
 2963 00d8 0444     		add	r4, r4, r0
ARM GAS  C:\Users\strag\AppData\Local\Temp\cc3UPhIa.s 			page 94


 2964              	.LVL629:
 2965 00da A4B2     		uxth	r4, r4
 2966              	.LVL630:
1529:../user/source/DLT698.c ****             { // end data
 2967              		.loc 1 1529 0
 2968 00dc 291B     		subs	r1, r5, r4
 2969 00de 4046     		mov	r0, r8
 2970              	.LVL631:
 2971 00e0 FFF7FEFF 		bl	dwDlt698DataLen
 2972              	.LVL632:
 2973 00e4 0028     		cmp	r0, #0
 2974 00e6 5ADB     		blt	.L255
1533:../user/source/DLT698.c ****             Len += Res;
 2975              		.loc 1 1533 0
 2976 00e8 8044     		add	r8, r8, r0
 2977              	.LVL633:
1534:../user/source/DLT698.c **** 
 2978              		.loc 1 1534 0
 2979 00ea 0444     		add	r4, r4, r0
 2980              	.LVL634:
 2981 00ec A4B2     		uxth	r4, r4
 2982              	.LVL635:
1536:../user/source/DLT698.c ****             { // TI
 2983              		.loc 1 1536 0
 2984 00ee 291B     		subs	r1, r5, r4
 2985 00f0 4046     		mov	r0, r8
 2986              	.LVL636:
 2987 00f2 FFF7FEFF 		bl	dwDlt698DataLen
 2988              	.LVL637:
 2989 00f6 0028     		cmp	r0, #0
 2990 00f8 55DB     		blt	.L256
1540:../user/source/DLT698.c ****             Len += Res;
 2991              		.loc 1 1540 0 discriminator 2
 2992 00fa 8044     		add	r8, r8, r0
 2993              	.LVL638:
1541:../user/source/DLT698.c ****         }
 2994              		.loc 1 1541 0 discriminator 2
 2995 00fc 2318     		adds	r3, r4, r0
 2996 00fe 9BB2     		uxth	r3, r3
 2997              	.LVL639:
1517:../user/source/DLT698.c ****         {
 2998              		.loc 1 1517 0 discriminator 2
 2999 0100 0136     		adds	r6, r6, #1
 3000              	.LVL640:
 3001              	.L243:
1517:../user/source/DLT698.c ****         {
 3002              		.loc 1 1517 0 is_stmt 0 discriminator 1
 3003 0102 BE42     		cmp	r6, r7
 3004 0104 DDDB     		blt	.L244
 3005 0106 2BE0     		b	.L233
 3006              	.LVL641:
 3007              	.L237:
1544:../user/source/DLT698.c ****     {
 3008              		.loc 1 1544 0 is_stmt 1
 3009 0108 1A1F     		subs	r2, r3, #4
 3010 010a D2B2     		uxtb	r2, r2
 3011 010c 012A     		cmp	r2, #1
ARM GAS  C:\Users\strag\AppData\Local\Temp\cc3UPhIa.s 			page 95


 3012 010e 09D8     		bhi	.L245
 3013              	.LVL642:
1552:../user/source/DLT698.c ****         {
 3014              		.loc 1 1552 0
 3015 0110 0839     		subs	r1, r1, #8
 3016              	.LVL643:
 3017 0112 0830     		adds	r0, r0, #8
 3018              	.LVL644:
 3019 0114 FFF7FEFF 		bl	dwDlt698MsLen
 3020              	.LVL645:
 3021 0118 0028     		cmp	r0, #0
 3022 011a 48DB     		blt	.L257
 3023              	.LVL646:
1558:../user/source/DLT698.c ****     }
 3024              		.loc 1 1558 0
 3025 011c 00F10803 		add	r3, r0, #8
 3026 0120 9BB2     		uxth	r3, r3
 3027              	.LVL647:
 3028 0122 1DE0     		b	.L233
 3029              	.LVL648:
 3030              	.L245:
1560:../user/source/DLT698.c ****     {
 3031              		.loc 1 1560 0
 3032 0124 9A1F     		subs	r2, r3, #6
 3033 0126 D2B2     		uxtb	r2, r2
 3034 0128 022A     		cmp	r2, #2
 3035 012a 09D8     		bhi	.L246
 3036              	.LVL649:
1574:../user/source/DLT698.c ****         {
 3037              		.loc 1 1574 0
 3038 012c 1239     		subs	r1, r1, #18
 3039              	.LVL650:
 3040 012e 1230     		adds	r0, r0, #18
 3041              	.LVL651:
 3042 0130 FFF7FEFF 		bl	dwDlt698MsLen
 3043              	.LVL652:
 3044 0134 0028     		cmp	r0, #0
 3045 0136 3EDB     		blt	.L258
 3046              	.LVL653:
1580:../user/source/DLT698.c ****     }
 3047              		.loc 1 1580 0
 3048 0138 00F11203 		add	r3, r0, #18
 3049 013c 9BB2     		uxth	r3, r3
 3050              	.LVL654:
 3051 013e 0FE0     		b	.L233
 3052              	.LVL655:
 3053              	.L246:
1582:../user/source/DLT698.c ****     {
 3054              		.loc 1 1582 0
 3055 0140 092B     		cmp	r3, #9
 3056 0142 0CD0     		beq	.L259
1590:../user/source/DLT698.c ****     {
 3057              		.loc 1 1590 0
 3058 0144 0A2B     		cmp	r3, #10
 3059 0146 3AD1     		bne	.L260
 3060              	.LVL656:
1598:../user/source/DLT698.c ****         {
ARM GAS  C:\Users\strag\AppData\Local\Temp\cc3UPhIa.s 			page 96


 3061              		.loc 1 1598 0
 3062 0148 0239     		subs	r1, r1, #2
 3063              	.LVL657:
 3064 014a 0230     		adds	r0, r0, #2
 3065              	.LVL658:
 3066 014c FFF7FEFF 		bl	dwDlt698MsLen
 3067              	.LVL659:
 3068 0150 0028     		cmp	r0, #0
 3069 0152 38DB     		blt	.L261
 3070              	.LVL660:
1604:../user/source/DLT698.c ****     }
 3071              		.loc 1 1604 0
 3072 0154 0230     		adds	r0, r0, #2
 3073              	.LVL661:
 3074 0156 83B2     		uxth	r3, r0
 3075              	.LVL662:
 3076 0158 02E0     		b	.L233
 3077              	.LVL663:
 3078              	.L247:
1454:../user/source/DLT698.c **** 
 3079              		.loc 1 1454 0
 3080 015a 0123     		movs	r3, #1
 3081 015c 00E0     		b	.L233
 3082              	.L259:
1588:../user/source/DLT698.c ****     }
 3083              		.loc 1 1588 0
 3084 015e 0223     		movs	r3, #2
 3085              	.LVL664:
 3086              	.L233:
1611:../user/source/DLT698.c ****     {
 3087              		.loc 1 1611 0
 3088 0160 1846     		mov	r0, r3
 3089 0162 9D42     		cmp	r5, r3
 3090 0164 31DA     		bge	.L235
1613:../user/source/DLT698.c ****     }
 3091              		.loc 1 1613 0
 3092 0166 4FF0FF30 		mov	r0, #-1
 3093 016a BDE8F081 		pop	{r4, r5, r6, r7, r8, pc}
 3094              	.LVL665:
 3095              	.L248:
1469:../user/source/DLT698.c ****         }
 3096              		.loc 1 1469 0
 3097 016e 4FF0FF30 		mov	r0, #-1
 3098              	.LVL666:
 3099 0172 BDE8F081 		pop	{r4, r5, r6, r7, r8, pc}
 3100              	.LVL667:
 3101              	.L249:
1484:../user/source/DLT698.c ****         }
 3102              		.loc 1 1484 0
 3103 0176 4FF0FF30 		mov	r0, #-1
 3104              	.LVL668:
 3105 017a BDE8F081 		pop	{r4, r5, r6, r7, r8, pc}
 3106              	.LVL669:
 3107              	.L250:
1491:../user/source/DLT698.c ****         }
 3108              		.loc 1 1491 0
 3109 017e 4FF0FF30 		mov	r0, #-1
ARM GAS  C:\Users\strag\AppData\Local\Temp\cc3UPhIa.s 			page 97


 3110              	.LVL670:
 3111 0182 BDE8F081 		pop	{r4, r5, r6, r7, r8, pc}
 3112              	.LVL671:
 3113              	.L251:
1498:../user/source/DLT698.c ****         }
 3114              		.loc 1 1498 0
 3115 0186 4FF0FF30 		mov	r0, #-1
 3116              	.LVL672:
 3117 018a BDE8F081 		pop	{r4, r5, r6, r7, r8, pc}
 3118              	.LVL673:
 3119              	.L253:
1511:../user/source/DLT698.c ****         }
 3120              		.loc 1 1511 0
 3121 018e 4FF0FF30 		mov	r0, #-1
 3122              	.LVL674:
 3123 0192 BDE8F081 		pop	{r4, r5, r6, r7, r8, pc}
 3124              	.LVL675:
 3125              	.L254:
1524:../user/source/DLT698.c ****             }
 3126              		.loc 1 1524 0
 3127 0196 4FF0FF30 		mov	r0, #-1
 3128              	.LVL676:
 3129 019a BDE8F081 		pop	{r4, r5, r6, r7, r8, pc}
 3130              	.LVL677:
 3131              	.L255:
1531:../user/source/DLT698.c ****             }
 3132              		.loc 1 1531 0
 3133 019e 4FF0FF30 		mov	r0, #-1
 3134              	.LVL678:
 3135 01a2 BDE8F081 		pop	{r4, r5, r6, r7, r8, pc}
 3136              	.LVL679:
 3137              	.L256:
1538:../user/source/DLT698.c ****             }
 3138              		.loc 1 1538 0
 3139 01a6 4FF0FF30 		mov	r0, #-1
 3140              	.LVL680:
 3141 01aa BDE8F081 		pop	{r4, r5, r6, r7, r8, pc}
 3142              	.LVL681:
 3143              	.L257:
1554:../user/source/DLT698.c ****         }
 3144              		.loc 1 1554 0
 3145 01ae 4FF0FF30 		mov	r0, #-1
 3146              	.LVL682:
 3147 01b2 BDE8F081 		pop	{r4, r5, r6, r7, r8, pc}
 3148              	.LVL683:
 3149              	.L258:
1576:../user/source/DLT698.c ****         }
 3150              		.loc 1 1576 0
 3151 01b6 4FF0FF30 		mov	r0, #-1
 3152              	.LVL684:
 3153 01ba BDE8F081 		pop	{r4, r5, r6, r7, r8, pc}
 3154              	.LVL685:
 3155              	.L260:
1608:../user/source/DLT698.c ****     }
 3156              		.loc 1 1608 0
 3157 01be 4FF0FF30 		mov	r0, #-1
 3158              	.LVL686:
ARM GAS  C:\Users\strag\AppData\Local\Temp\cc3UPhIa.s 			page 98


 3159 01c2 BDE8F081 		pop	{r4, r5, r6, r7, r8, pc}
 3160              	.LVL687:
 3161              	.L261:
1600:../user/source/DLT698.c ****         }
 3162              		.loc 1 1600 0
 3163 01c6 4FF0FF30 		mov	r0, #-1
 3164              	.LVL688:
 3165              	.L235:
1617:../user/source/DLT698.c **** 
 3166              		.loc 1 1617 0
 3167 01ca BDE8F081 		pop	{r4, r5, r6, r7, r8, pc}
 3168              		.cfi_endproc
 3169              	.LFE124:
 3171 01ce 00BF     		.section	.text.pppfcs16,"ax",%progbits
 3172              		.align	2
 3173              		.global	pppfcs16
 3174              		.thumb
 3175              		.thumb_func
 3177              	pppfcs16:
 3178              	.LFB111:
  55:../user/source/DLT698.c ****     //register UINT16 fcs;
 3179              		.loc 1 55 0
 3180              		.cfi_startproc
 3181              		@ args = 0, pretend = 0, frame = 0
 3182              		@ frame_needed = 0, uses_anonymous_args = 0
 3183              		@ link register save eliminated.
 3184              	.LVL689:
 3185 0000 10B4     		push	{r4}
 3186              	.LCFI3:
 3187              		.cfi_def_cfa_offset 4
 3188              		.cfi_offset 4, -4
  61:../user/source/DLT698.c ****         fcs = (fcs >> 8) ^ fcstab[(fcs ^ *cp++) & 0xff];
 3189              		.loc 1 61 0
 3190 0002 09E0     		b	.L264
 3191              	.LVL690:
 3192              	.L265:
  62:../user/source/DLT698.c ****     return (~fcs);
 3193              		.loc 1 62 0
 3194 0004 0B78     		ldrb	r3, [r1]	@ zero_extendqisi2
 3195 0006 4340     		eors	r3, r3, r0
 3196 0008 DBB2     		uxtb	r3, r3
 3197 000a 074A     		ldr	r2, .L267
 3198 000c 32F81330 		ldrh	r3, [r2, r3, lsl #1]
 3199 0010 83EA1020 		eor	r0, r3, r0, lsr #8
 3200              	.LVL691:
  61:../user/source/DLT698.c ****         fcs = (fcs >> 8) ^ fcstab[(fcs ^ *cp++) & 0xff];
 3201              		.loc 1 61 0
 3202 0014 2246     		mov	r2, r4
  62:../user/source/DLT698.c ****     return (~fcs);
 3203              		.loc 1 62 0
 3204 0016 0131     		adds	r1, r1, #1
 3205              	.LVL692:
 3206              	.L264:
  61:../user/source/DLT698.c ****         fcs = (fcs >> 8) ^ fcstab[(fcs ^ *cp++) & 0xff];
 3207              		.loc 1 61 0
 3208 0018 541E     		subs	r4, r2, #1
 3209              	.LVL693:
ARM GAS  C:\Users\strag\AppData\Local\Temp\cc3UPhIa.s 			page 99


 3210 001a 002A     		cmp	r2, #0
 3211 001c F2D1     		bne	.L265
  63:../user/source/DLT698.c **** }
 3212              		.loc 1 63 0
 3213 001e C043     		mvns	r0, r0
 3214              	.LVL694:
  64:../user/source/DLT698.c **** 
 3215              		.loc 1 64 0
 3216 0020 80B2     		uxth	r0, r0
 3217 0022 5DF8044B 		ldr	r4, [sp], #4
 3218              	.LCFI4:
 3219              		.cfi_restore 4
 3220              		.cfi_def_cfa_offset 0
 3221              	.LVL695:
 3222 0026 7047     		bx	lr
 3223              	.L268:
 3224              		.align	2
 3225              	.L267:
 3226 0028 00000000 		.word	.LANCHOR0
 3227              		.cfi_endproc
 3228              	.LFE111:
 3230              		.section	.text.dwReCalculateFCS,"ax",%progbits
 3231              		.align	2
 3232              		.global	dwReCalculateFCS
 3233              		.thumb
 3234              		.thumb_func
 3236              	dwReCalculateFCS:
 3237              	.LFB112:
  67:../user/source/DLT698.c ****     UINT16 uwframeLen;
 3238              		.loc 1 67 0
 3239              		.cfi_startproc
 3240              		@ args = 0, pretend = 0, frame = 0
 3241              		@ frame_needed = 0, uses_anonymous_args = 0
 3242              	.LVL696:
 3243 0000 F8B5     		push	{r3, r4, r5, r6, r7, lr}
 3244              	.LCFI5:
 3245              		.cfi_def_cfa_offset 24
 3246              		.cfi_offset 3, -24
 3247              		.cfi_offset 4, -20
 3248              		.cfi_offset 5, -16
 3249              		.cfi_offset 6, -12
 3250              		.cfi_offset 7, -8
 3251              		.cfi_offset 14, -4
 3252 0002 0446     		mov	r4, r0
  72:../user/source/DLT698.c **** 
 3253              		.loc 1 72 0
 3254 0004 8589     		ldrh	r5, [r0, #12]
 3255              	.LVL697:
  74:../user/source/DLT698.c ****     uwfcs = PPPINITFCS16;
 3256              		.loc 1 74 0
 3257 0006 6E1E     		subs	r6, r5, #1
 3258              	.LVL698:
  76:../user/source/DLT698.c **** 
 3259              		.loc 1 76 0
 3260 0008 0768     		ldr	r7, [r0]
 3261 000a AA1E     		subs	r2, r5, #2
 3262 000c 791C     		adds	r1, r7, #1
ARM GAS  C:\Users\strag\AppData\Local\Temp\cc3UPhIa.s 			page 100


 3263 000e 4FF6FF70 		movw	r0, #65535
 3264              	.LVL699:
 3265 0012 FFF7FEFF 		bl	pppfcs16
 3266              	.LVL700:
  78:../user/source/DLT698.c ****     *(pframe->pStart + nFCSPos + 1) = MSB(uwfcs);
 3267              		.loc 1 78 0
 3268 0016 B855     		strb	r0, [r7, r6]
  79:../user/source/DLT698.c **** 
 3269              		.loc 1 79 0
 3270 0018 2368     		ldr	r3, [r4]
 3271 001a 000A     		lsrs	r0, r0, #8
 3272              	.LVL701:
 3273 001c 5855     		strb	r0, [r3, r5]
  82:../user/source/DLT698.c **** 
 3274              		.loc 1 82 0
 3275 001e 0120     		movs	r0, #1
 3276 0020 F8BD     		pop	{r3, r4, r5, r6, r7, pc}
 3277              		.cfi_endproc
 3278              	.LFE112:
 3280 0022 00BF     		.section	.text.dwUnpackSecurity,"ax",%progbits
 3281              		.align	2
 3282              		.global	dwUnpackSecurity
 3283              		.thumb
 3284              		.thumb_func
 3286              	dwUnpackSecurity:
 3287              	.LFB113:
 100:../user/source/DLT698.c ****     int Len = 0, Bytes = 0;
 3288              		.loc 1 100 0
 3289              		.cfi_startproc
 3290              		@ args = 0, pretend = 0, frame = 0
 3291              		@ frame_needed = 0, uses_anonymous_args = 0
 3292              		@ link register save eliminated.
 3293              	.LVL702:
 105:../user/source/DLT698.c **** 
 3294              		.loc 1 105 0
 3295 0000 1060     		str	r0, [r2]
 107:../user/source/DLT698.c ****     {
 3296              		.loc 1 107 0
 3297 0002 0378     		ldrb	r3, [r0]	@ zero_extendqisi2
 3298 0004 902B     		cmp	r3, #144
 3299 0006 2DD1     		bne	.L272
 113:../user/source/DLT698.c ****         {
 3300              		.loc 1 113 0
 3301 0008 4378     		ldrb	r3, [r0, #1]	@ zero_extendqisi2
 3302 000a 5BBB     		cbnz	r3, .L272
 3303              	.LVL703:
 3304              	.LBB124:
 3305              	.LBB125:
 287:../user/source/DLT698.c ****     {
 3306              		.loc 1 287 0
 3307 000c 8178     		ldrb	r1, [r0, #2]	@ zero_extendqisi2
 3308              	.LVL704:
 3309 000e 11F0800F 		tst	r1, #128
 3310 0012 01D1     		bne	.L274
 3311              	.LVL705:
 289:../user/source/DLT698.c ****         return ucRcvBuf[0];
 3312              		.loc 1 289 0
ARM GAS  C:\Users\strag\AppData\Local\Temp\cc3UPhIa.s 			page 101


 3313 0014 0123     		movs	r3, #1
 3314 0016 1DE0     		b	.L275
 3315              	.LVL706:
 3316              	.L274:
 293:../user/source/DLT698.c **** 
 3317              		.loc 1 293 0
 3318 0018 01F07F01 		and	r1, r1, #127
 3319              	.LVL707:
 295:../user/source/DLT698.c ****     {
 3320              		.loc 1 295 0
 3321 001c 0129     		cmp	r1, #1
 3322 001e 02D1     		bne	.L276
 3323              	.LVL708:
 298:../user/source/DLT698.c ****     }
 3324              		.loc 1 298 0
 3325 0020 C178     		ldrb	r1, [r0, #3]	@ zero_extendqisi2
 3326              	.LVL709:
 297:../user/source/DLT698.c ****         return (ucRcvBuf[1]);
 3327              		.loc 1 297 0
 3328 0022 0223     		movs	r3, #2
 3329 0024 16E0     		b	.L275
 3330              	.LVL710:
 3331              	.L276:
 300:../user/source/DLT698.c ****     {
 3332              		.loc 1 300 0
 3333 0026 0229     		cmp	r1, #2
 3334 0028 05D1     		bne	.L277
 3335              	.LVL711:
 303:../user/source/DLT698.c ****     }
 3336              		.loc 1 303 0
 3337 002a C178     		ldrb	r1, [r0, #3]	@ zero_extendqisi2
 3338              	.LVL712:
 3339 002c 0379     		ldrb	r3, [r0, #4]	@ zero_extendqisi2
 3340 002e 43EA0121 		orr	r1, r3, r1, lsl #8
 302:../user/source/DLT698.c ****         return ((ucRcvBuf[1] << 8) | (ucRcvBuf[2]));
 3341              		.loc 1 302 0
 3342 0032 0323     		movs	r3, #3
 3343 0034 0EE0     		b	.L275
 3344              	.LVL713:
 3345              	.L277:
 305:../user/source/DLT698.c ****     {
 3346              		.loc 1 305 0
 3347 0036 0329     		cmp	r1, #3
 3348 0038 03D1     		bne	.L278
 3349              	.LVL714:
 308:../user/source/DLT698.c ****                 (ucRcvBuf[2] << 8) & (ucRcvBuf[3]));
 3350              		.loc 1 308 0
 3351 003a C178     		ldrb	r1, [r0, #3]	@ zero_extendqisi2
 3352              	.LVL715:
 3353 003c 0904     		lsls	r1, r1, #16
 307:../user/source/DLT698.c ****         return ((ucRcvBuf[1] << 16) |
 3354              		.loc 1 307 0
 3355 003e 0423     		movs	r3, #4
 3356 0040 08E0     		b	.L275
 3357              	.LVL716:
 3358              	.L278:
 311:../user/source/DLT698.c ****     {
ARM GAS  C:\Users\strag\AppData\Local\Temp\cc3UPhIa.s 			page 102


 3359              		.loc 1 311 0
 3360 0042 0429     		cmp	r1, #4
 3361 0044 03D1     		bne	.L281
 3362              	.LVL717:
 314:../user/source/DLT698.c ****                 (ucRcvBuf[2] << 16) & (ucRcvBuf[3] << 8) & (ucRcvBuf[4]));
 3363              		.loc 1 314 0
 3364 0046 C178     		ldrb	r1, [r0, #3]	@ zero_extendqisi2
 3365              	.LVL718:
 3366 0048 0906     		lsls	r1, r1, #24
 313:../user/source/DLT698.c ****         return ((ucRcvBuf[1] << 24) |
 3367              		.loc 1 313 0
 3368 004a 0523     		movs	r3, #5
 3369 004c 02E0     		b	.L275
 3370              	.LVL719:
 3371              	.L281:
 3372              	.LBE125:
 3373              	.LBE124:
 101:../user/source/DLT698.c **** 
 3374              		.loc 1 101 0
 3375 004e 0023     		movs	r3, #0
 3376              	.LBB127:
 3377              	.LBB126:
 318:../user/source/DLT698.c **** }
 3378              		.loc 1 318 0
 3379 0050 4FF0FF31 		mov	r1, #-1
 3380              	.LVL720:
 3381              	.L275:
 3382              	.LBE126:
 3383              	.LBE127:
 118:../user/source/DLT698.c ****             {
 3384              		.loc 1 118 0
 3385 0054 0029     		cmp	r1, #0
 3386 0056 03DB     		blt	.L282
 136:../user/source/DLT698.c ****             return Len;
 3387              		.loc 1 136 0
 3388 0058 0233     		adds	r3, r3, #2
 3389              	.LVL721:
 3390 005a 1844     		add	r0, r0, r3
 3391              	.LVL722:
 3392 005c 1060     		str	r0, [r2]
 3393              	.LVL723:
 137:../user/source/DLT698.c ****             //}
 3394              		.loc 1 137 0
 3395 005e 01E0     		b	.L272
 3396              	.LVL724:
 3397              	.L282:
 120:../user/source/DLT698.c ****             }
 3398              		.loc 1 120 0
 3399 0060 4FF0FF31 		mov	r1, #-1
 3400              	.LVL725:
 3401              	.L272:
 161:../user/source/DLT698.c **** 
 3402              		.loc 1 161 0
 3403 0064 0846     		mov	r0, r1
 3404 0066 7047     		bx	lr
 3405              		.cfi_endproc
 3406              	.LFE113:
ARM GAS  C:\Users\strag\AppData\Local\Temp\cc3UPhIa.s 			page 103


 3408              		.section	.text.dwGet698Apdu,"ax",%progbits
 3409              		.align	2
 3410              		.global	dwGet698Apdu
 3411              		.thumb
 3412              		.thumb_func
 3414              	dwGet698Apdu:
 3415              	.LFB114:
 164:../user/source/DLT698.c ****     UINT16 dwLen;
 3416              		.loc 1 164 0
 3417              		.cfi_startproc
 3418              		@ args = 0, pretend = 0, frame = 0
 3419              		@ frame_needed = 0, uses_anonymous_args = 0
 3420              	.LVL726:
 3421 0000 08B5     		push	{r3, lr}
 3422              	.LCFI6:
 3423              		.cfi_def_cfa_offset 8
 3424              		.cfi_offset 3, -8
 3425              		.cfi_offset 14, -4
 168:../user/source/DLT698.c ****     if ((dwLen = dwUnpackSecurity(pframe->pSecurityData, dwLen, pAPDU)) < 0)
 3426              		.loc 1 168 0
 3427 0002 8389     		ldrh	r3, [r0, #12]
 3428 0004 0289     		ldrh	r2, [r0, #8]
 3429 0006 9B1A     		subs	r3, r3, r2
 3430 0008 083B     		subs	r3, r3, #8
 3431              	.LVL727:
 169:../user/source/DLT698.c ****     {
 3432              		.loc 1 169 0
 3433 000a 0A46     		mov	r2, r1
 3434 000c 99B2     		uxth	r1, r3
 3435              	.LVL728:
 3436 000e 4068     		ldr	r0, [r0, #4]
 3437              	.LVL729:
 3438 0010 FFF7FEFF 		bl	dwUnpackSecurity
 3439              	.LVL730:
 178:../user/source/DLT698.c **** /*
 3440              		.loc 1 178 0
 3441 0014 80B2     		uxth	r0, r0
 3442 0016 08BD     		pop	{r3, pc}
 3443              		.cfi_endproc
 3444              	.LFE114:
 3446              		.section	.text.dwGetApdu,"ax",%progbits
 3447              		.align	2
 3448              		.global	dwGetApdu
 3449              		.thumb
 3450              		.thumb_func
 3452              	dwGetApdu:
 3453              	.LFB115:
 190:../user/source/DLT698.c ****     UINT16 uwframeLen;
 3454              		.loc 1 190 0
 3455              		.cfi_startproc
 3456              		@ args = 0, pretend = 0, frame = 0
 3457              		@ frame_needed = 0, uses_anonymous_args = 0
 3458              	.LVL731:
 3459 0000 2DE9F843 		push	{r3, r4, r5, r6, r7, r8, r9, lr}
 3460              	.LCFI7:
 3461              		.cfi_def_cfa_offset 32
 3462              		.cfi_offset 3, -32
ARM GAS  C:\Users\strag\AppData\Local\Temp\cc3UPhIa.s 			page 104


 3463              		.cfi_offset 4, -28
 3464              		.cfi_offset 5, -24
 3465              		.cfi_offset 6, -20
 3466              		.cfi_offset 7, -16
 3467              		.cfi_offset 8, -12
 3468              		.cfi_offset 9, -8
 3469              		.cfi_offset 14, -4
 3470              	.LVL732:
 199:../user/source/DLT698.c ****     {
 3471              		.loc 1 199 0
 3472 0004 0378     		ldrb	r3, [r0]	@ zero_extendqisi2
 3473 0006 682B     		cmp	r3, #104
 3474 0008 2FD1     		bne	.L288
 3475 000a 8846     		mov	r8, r1
 3476 000c 0546     		mov	r5, r0
 205:../user/source/DLT698.c ****     /*SA地址字节数，0代表1个字节*/
 3477              		.loc 1 205 0
 3478 000e 4378     		ldrb	r3, [r0, #1]	@ zero_extendqisi2
 3479 0010 8678     		ldrb	r6, [r0, #2]	@ zero_extendqisi2
 3480 0012 43EA0626 		orr	r6, r3, r6, lsl #8
 3481              	.LVL733:
 207:../user/source/DLT698.c ****     nHCSPos += SA_Len + 5;
 3482              		.loc 1 207 0
 3483 0016 0479     		ldrb	r4, [r0, #4]	@ zero_extendqisi2
 3484 0018 04F00F04 		and	r4, r4, #15
 3485              	.LVL734:
 208:../user/source/DLT698.c **** 
 3486              		.loc 1 208 0
 3487 001c E71D     		adds	r7, r4, #7
 3488              	.LVL735:
 212:../user/source/DLT698.c **** 
 3489              		.loc 1 212 0
 3490 001e 00F10109 		add	r9, r0, #1
 3491 0022 A21D     		adds	r2, r4, #6
 207:../user/source/DLT698.c ****     nHCSPos += SA_Len + 5;
 3492              		.loc 1 207 0
 3493 0024 0234     		adds	r4, r4, #2
 3494              	.LVL736:
 212:../user/source/DLT698.c **** 
 3495              		.loc 1 212 0
 3496 0026 4946     		mov	r1, r9
 3497              	.LVL737:
 3498 0028 4FF6FF70 		movw	r0, #65535
 3499              	.LVL738:
 3500 002c FFF7FEFF 		bl	pppfcs16
 3501              	.LVL739:
 214:../user/source/DLT698.c ****     {
 3502              		.loc 1 214 0
 3503 0030 EB5D     		ldrb	r3, [r5, r7]	@ zero_extendqisi2
 3504 0032 2A19     		adds	r2, r5, r4
 3505 0034 9279     		ldrb	r2, [r2, #6]	@ zero_extendqisi2
 3506 0036 43EA0223 		orr	r3, r3, r2, lsl #8
 3507 003a 9842     		cmp	r0, r3
 3508 003c 19D1     		bne	.L289
 220:../user/source/DLT698.c ****     uwfcs = PPPINITFCS16;
 3509              		.loc 1 220 0
 3510 003e 771E     		subs	r7, r6, #1
ARM GAS  C:\Users\strag\AppData\Local\Temp\cc3UPhIa.s 			page 105


 3511              	.LVL740:
 222:../user/source/DLT698.c ****     if (uwfcs != MAKE_WORD(pframe[nFCSPos + 1], pframe[nFCSPos]))
 3512              		.loc 1 222 0
 3513 0040 B21E     		subs	r2, r6, #2
 3514 0042 4946     		mov	r1, r9
 3515 0044 4FF6FF70 		movw	r0, #65535
 3516              	.LVL741:
 3517 0048 FFF7FEFF 		bl	pppfcs16
 3518              	.LVL742:
 223:../user/source/DLT698.c ****     {
 3519              		.loc 1 223 0
 3520 004c EB5D     		ldrb	r3, [r5, r7]	@ zero_extendqisi2
 3521 004e 2F44     		add	r7, r7, r5
 3522              	.LVL743:
 3523 0050 7A78     		ldrb	r2, [r7, #1]	@ zero_extendqisi2
 3524 0052 43EA0223 		orr	r3, r3, r2, lsl #8
 3525 0056 9842     		cmp	r0, r3
 3526 0058 0FD1     		bne	.L290
 228:../user/source/DLT698.c **** 
 3527              		.loc 1 228 0
 3528 005a 301B     		subs	r0, r6, r4
 3529              	.LVL744:
 232:../user/source/DLT698.c ****     return dwAPDULen;
 3530              		.loc 1 232 0
 3531 005c 0734     		adds	r4, r4, #7
 3532              	.LVL745:
 3533 005e 2C44     		add	r4, r4, r5
 3534              	.LVL746:
 3535 0060 C8F80040 		str	r4, [r8]
 233:../user/source/DLT698.c **** }
 3536              		.loc 1 233 0
 3537 0064 0838     		subs	r0, r0, #8
 3538              	.LVL747:
 3539 0066 BDE8F883 		pop	{r3, r4, r5, r6, r7, r8, r9, pc}
 3540              	.LVL748:
 3541              	.L288:
 201:../user/source/DLT698.c ****     }
 3542              		.loc 1 201 0
 3543 006a 4FF0FF30 		mov	r0, #-1
 3544              	.LVL749:
 3545 006e BDE8F883 		pop	{r3, r4, r5, r6, r7, r8, r9, pc}
 3546              	.LVL750:
 3547              	.L289:
 216:../user/source/DLT698.c ****     }
 3548              		.loc 1 216 0
 3549 0072 4FF0FF30 		mov	r0, #-1
 3550              	.LVL751:
 3551 0076 BDE8F883 		pop	{r3, r4, r5, r6, r7, r8, r9, pc}
 3552              	.LVL752:
 3553              	.L290:
 225:../user/source/DLT698.c ****     }
 3554              		.loc 1 225 0
 3555 007a 4FF0FF30 		mov	r0, #-1
 3556              	.LVL753:
 234:../user/source/DLT698.c **** 
 3557              		.loc 1 234 0
 3558 007e BDE8F883 		pop	{r3, r4, r5, r6, r7, r8, r9, pc}
ARM GAS  C:\Users\strag\AppData\Local\Temp\cc3UPhIa.s 			page 106


 3559              		.cfi_endproc
 3560              	.LFE115:
 3562 0082 00BF     		.section	.text.dwDlt698DataLenByOAD,"ax",%progbits
 3563              		.align	2
 3564              		.global	dwDlt698DataLenByOAD
 3565              		.thumb
 3566              		.thumb_func
 3568              	dwDlt698DataLenByOAD:
 3569              	.LFB118:
 322:../user/source/DLT698.c ****     //UINT8 i;
 3570              		.loc 1 322 0
 3571              		.cfi_startproc
 3572              		@ args = 0, pretend = 0, frame = 8
 3573              		@ frame_needed = 0, uses_anonymous_args = 0
 3574              	.LVL754:
 3575 0000 00B5     		push	{lr}
 3576              	.LCFI8:
 3577              		.cfi_def_cfa_offset 4
 3578              		.cfi_offset 14, -4
 3579 0002 83B0     		sub	sp, sp, #12
 3580              	.LCFI9:
 3581              		.cfi_def_cfa_offset 16
 3582 0004 0190     		str	r0, [sp, #4]
 3583 0006 0846     		mov	r0, r1
 3584              	.LVL755:
 336:../user/source/DLT698.c **** }
 3585              		.loc 1 336 0
 3586 0008 4FF48071 		mov	r1, #256
 3587              	.LVL756:
 3588 000c FFF7FEFF 		bl	dwDlt698DataLen
 3589              	.LVL757:
 337:../user/source/DLT698.c **** 
 3590              		.loc 1 337 0
 3591 0010 03B0     		add	sp, sp, #12
 3592              	.LCFI10:
 3593              		.cfi_def_cfa_offset 4
 3594              		@ sp needed
 3595 0012 5DF804FB 		ldr	pc, [sp], #4
 3596              		.cfi_endproc
 3597              	.LFE118:
 3599 0016 00BF     		.section	.text.dwGetOad,"ax",%progbits
 3600              		.align	2
 3601              		.global	dwGetOad
 3602              		.thumb
 3603              		.thumb_func
 3605              	dwGetOad:
 3606              	.LFB119:
 340:../user/source/DLT698.c ****     pstOad->OI_date = MAKE_WORD(*pucStr, *(pucStr + 1));
 3607              		.loc 1 340 0
 3608              		.cfi_startproc
 3609              		@ args = 0, pretend = 0, frame = 0
 3610              		@ frame_needed = 0, uses_anonymous_args = 0
 3611              		@ link register save eliminated.
 3612              	.LVL758:
 341:../user/source/DLT698.c ****     pucStr += 2;
 3613              		.loc 1 341 0
 3614 0000 4378     		ldrb	r3, [r0, #1]	@ zero_extendqisi2
ARM GAS  C:\Users\strag\AppData\Local\Temp\cc3UPhIa.s 			page 107


 3615 0002 0278     		ldrb	r2, [r0]	@ zero_extendqisi2
 3616 0004 43EA0223 		orr	r3, r3, r2, lsl #8
 3617 0008 0B80     		strh	r3, [r1]	@ movhi
 3618              	.LVL759:
 344:../user/source/DLT698.c ****     pucStr++;
 3619              		.loc 1 344 0
 3620 000a 8378     		ldrb	r3, [r0, #2]	@ zero_extendqisi2
 3621 000c 8B70     		strb	r3, [r1, #2]
 3622              	.LVL760:
 346:../user/source/DLT698.c ****     pucStr++;
 3623              		.loc 1 346 0
 3624 000e C378     		ldrb	r3, [r0, #3]	@ zero_extendqisi2
 3625 0010 CB70     		strb	r3, [r1, #3]
 3626              	.LVL761:
 350:../user/source/DLT698.c **** 
 3627              		.loc 1 350 0
 3628 0012 0420     		movs	r0, #4
 3629              	.LVL762:
 3630 0014 7047     		bx	lr
 3631              		.cfi_endproc
 3632              	.LFE119:
 3634 0016 00BF     		.section	.text.dwGetResponseNormal,"ax",%progbits
 3635              		.align	2
 3636              		.thumb
 3637              		.thumb_func
 3639              	dwGetResponseNormal:
 3640              	.LFB121:
 379:../user/source/DLT698.c ****     UINT8 i;
 3641              		.loc 1 379 0
 3642              		.cfi_startproc
 3643              		@ args = 0, pretend = 0, frame = 8
 3644              		@ frame_needed = 0, uses_anonymous_args = 0
 3645              	.LVL763:
 3646 0000 F0B5     		push	{r4, r5, r6, r7, lr}
 3647              	.LCFI11:
 3648              		.cfi_def_cfa_offset 20
 3649              		.cfi_offset 4, -20
 3650              		.cfi_offset 5, -16
 3651              		.cfi_offset 6, -12
 3652              		.cfi_offset 7, -8
 3653              		.cfi_offset 14, -4
 3654 0002 83B0     		sub	sp, sp, #12
 3655              	.LCFI12:
 3656              		.cfi_def_cfa_offset 32
 3657              	.LVL764:
 393:../user/source/DLT698.c ****     {
 3658              		.loc 1 393 0
 3659 0004 4378     		ldrb	r3, [r0, #1]	@ zero_extendqisi2
 3660 0006 012B     		cmp	r3, #1
 3661 0008 02D0     		beq	.L297
 3662 000a 022B     		cmp	r3, #2
 3663 000c 03D0     		beq	.L298
 3664 000e 4CE0     		b	.L309
 3665              	.L297:
 397:../user/source/DLT698.c ****         ucResultNum = 1;
 3666              		.loc 1 397 0
 3667 0010 C41C     		adds	r4, r0, #3
ARM GAS  C:\Users\strag\AppData\Local\Temp\cc3UPhIa.s 			page 108


 3668              	.LVL765:
 398:../user/source/DLT698.c ****     }
 3669              		.loc 1 398 0
 3670 0012 0126     		movs	r6, #1
 400:../user/source/DLT698.c ****     case GetResponseNormalList:
 3671              		.loc 1 400 0
 3672 0014 04E0     		b	.L299
 3673              	.LVL766:
 3674              	.L298:
 405:../user/source/DLT698.c ****         {
 3675              		.loc 1 405 0
 3676 0016 041D     		adds	r4, r0, #4
 3677              	.LVL767:
 3678 0018 C678     		ldrb	r6, [r0, #3]	@ zero_extendqisi2
 3679              	.LVL768:
 3680 001a 16F0800F 		tst	r6, #128
 3681 001e 47D1     		bne	.L306
 3682              	.LVL769:
 3683              	.L299:
 3684 0020 0F46     		mov	r7, r1
 3685              	.LVL770:
 415:../user/source/DLT698.c **** 
 3686              		.loc 1 415 0
 3687 0022 40F2FC52 		movw	r2, #1532
 3688 0026 0021     		movs	r1, #0
 3689              	.LVL771:
 3690 0028 3846     		mov	r0, r7
 3691              	.LVL772:
 3692 002a FFF7FEFF 		bl	memset
 3693              	.LVL773:
 418:../user/source/DLT698.c **** 
 3694              		.loc 1 418 0
 3695 002e 0123     		movs	r3, #1
 3696 0030 3B70     		strb	r3, [r7]
 3697              	.LVL774:
 420:../user/source/DLT698.c ****     {
 3698              		.loc 1 420 0
 3699 0032 0025     		movs	r5, #0
 3700 0034 35E0     		b	.L300
 3701              	.LVL775:
 3702              	.L304:
 423:../user/source/DLT698.c **** 
 3703              		.loc 1 423 0
 3704 0036 01A9     		add	r1, sp, #4
 3705 0038 2046     		mov	r0, r4
 3706 003a FFF7FEFF 		bl	dwGetOad
 3707              	.LVL776:
 3708 003e 2218     		adds	r2, r4, r0
 3709              	.LVL777:
 425:../user/source/DLT698.c ****         {
 3710              		.loc 1 425 0
 3711 0040 235C     		ldrb	r3, [r4, r0]	@ zero_extendqisi2
 3712 0042 0BB9     		cbnz	r3, .L301
 3713              	.LVL778:
 428:../user/source/DLT698.c ****         }
 3714              		.loc 1 428 0
 3715 0044 941C     		adds	r4, r2, #2
ARM GAS  C:\Users\strag\AppData\Local\Temp\cc3UPhIa.s 			page 109


 3716              	.LVL779:
 3717 0046 2AE0     		b	.L302
 3718              	.LVL780:
 3719              	.L301:
 430:../user/source/DLT698.c ****         {
 3720              		.loc 1 430 0
 3721 0048 012B     		cmp	r3, #1
 3722 004a 34D1     		bne	.L307
 432:../user/source/DLT698.c ****             //if ((dwLen = dwDlt698DataLenByOAD(pstCollData->stDataUnit[i].stOAD, Ptr)) < 0)
 3723              		.loc 1 432 0
 3724 004c 541C     		adds	r4, r2, #1
 3725              	.LVL781:
 434:../user/source/DLT698.c ****             {
 3726              		.loc 1 434 0
 3727 004e 2146     		mov	r1, r4
 3728 0050 0198     		ldr	r0, [sp, #4]
 3729 0052 FFF7FEFF 		bl	dwDlt698DataLenByOAD
 3730              	.LVL782:
 3731 0056 0028     		cmp	r0, #0
 3732 0058 30DB     		blt	.L308
 439:../user/source/DLT698.c ****             {
 3733              		.loc 1 439 0
 3734 005a BDF80430 		ldrh	r3, [sp, #4]
 3735 005e B3F5005F 		cmp	r3, #8192
 3736 0062 1BD1     		bne	.L303
 441:../user/source/DLT698.c ****                 pstCollData->stDataUnit[pstCollData->ucDataNum].stOAD.attr_ID = stOADtmp.attr_ID;
 3737              		.loc 1 441 0
 3738 0064 BA79     		ldrb	r2, [r7, #6]	@ zero_extendqisi2
 3739 0066 5100     		lsls	r1, r2, #1
 3740 0068 01EB020E 		add	lr, r1, r2
 3741 006c 4FEA8E03 		lsl	r3, lr, #2
 3742 0070 3B44     		add	r3, r3, r7
 3743 0072 4FF4005E 		mov	lr, #8192
 3744 0076 A3F808E0 		strh	lr, [r3, #8]	@ movhi
 442:../user/source/DLT698.c ****                 pstCollData->stDataUnit[pstCollData->ucDataNum].stOAD.attr_index = stOADtmp.attr_in
 3745              		.loc 1 442 0
 3746 007a 9DF806E0 		ldrb	lr, [sp, #6]	@ zero_extendqisi2
 3747 007e 83F80AE0 		strb	lr, [r3, #10]
 443:../user/source/DLT698.c **** 
 3748              		.loc 1 443 0
 3749 0082 9DF807E0 		ldrb	lr, [sp, #7]	@ zero_extendqisi2
 3750 0086 83F80BE0 		strb	lr, [r3, #11]
 445:../user/source/DLT698.c ****                 pstCollData->stDataUnit[pstCollData->ucDataNum].ucPtr = Ptr;
 3751              		.loc 1 445 0
 3752 008a D881     		strh	r0, [r3, #14]	@ movhi
 446:../user/source/DLT698.c ****                 pstCollData->stDataUnit[pstCollData->ucDataNum].ucVal = 1;
 3753              		.loc 1 446 0
 3754 008c 1C61     		str	r4, [r3, #16]
 447:../user/source/DLT698.c ****                 pstCollData->ucDataNum++;
 3755              		.loc 1 447 0
 3756 008e 8B18     		adds	r3, r1, r2
 3757 0090 9900     		lsls	r1, r3, #2
 3758 0092 3944     		add	r1, r1, r7
 3759 0094 0123     		movs	r3, #1
 3760 0096 0B73     		strb	r3, [r1, #12]
 448:../user/source/DLT698.c ****             }
 3761              		.loc 1 448 0
ARM GAS  C:\Users\strag\AppData\Local\Temp\cc3UPhIa.s 			page 110


 3762 0098 1A44     		add	r2, r2, r3
 3763 009a BA71     		strb	r2, [r7, #6]
 3764              	.L303:
 456:../user/source/DLT698.c ****         }
 3765              		.loc 1 456 0
 3766 009c 0444     		add	r4, r4, r0
 3767              	.LVL783:
 3768              	.L302:
 420:../user/source/DLT698.c ****     {
 3769              		.loc 1 420 0 discriminator 2
 3770 009e 0135     		adds	r5, r5, #1
 3771              	.LVL784:
 3772 00a0 EDB2     		uxtb	r5, r5
 3773              	.LVL785:
 3774              	.L300:
 420:../user/source/DLT698.c ****     {
 3775              		.loc 1 420 0 is_stmt 0 discriminator 1
 3776 00a2 B542     		cmp	r5, r6
 3777 00a4 C7D3     		bcc	.L304
 520:../user/source/DLT698.c **** }
 3778              		.loc 1 520 0 is_stmt 1
 3779 00a6 0120     		movs	r0, #1
 3780 00a8 0AE0     		b	.L296
 3781              	.LVL786:
 3782              	.L309:
 412:../user/source/DLT698.c ****     }
 3783              		.loc 1 412 0
 3784 00aa 4FF0FF30 		mov	r0, #-1
 3785              	.LVL787:
 3786 00ae 07E0     		b	.L296
 3787              	.LVL788:
 3788              	.L306:
 407:../user/source/DLT698.c ****         }
 3789              		.loc 1 407 0
 3790 00b0 4FF0FF30 		mov	r0, #-1
 3791              	.LVL789:
 3792 00b4 04E0     		b	.L296
 3793              	.LVL790:
 3794              	.L307:
 460:../user/source/DLT698.c ****         }
 3795              		.loc 1 460 0
 3796 00b6 4FF0FF30 		mov	r0, #-1
 3797 00ba 01E0     		b	.L296
 3798              	.LVL791:
 3799              	.L308:
 436:../user/source/DLT698.c ****             }
 3800              		.loc 1 436 0
 3801 00bc 4FF0FF30 		mov	r0, #-1
 3802              	.LVL792:
 3803              	.L296:
 521:../user/source/DLT698.c **** /*
 3804              		.loc 1 521 0
 3805 00c0 03B0     		add	sp, sp, #12
 3806              	.LCFI13:
 3807              		.cfi_def_cfa_offset 20
 3808              		@ sp needed
 3809 00c2 F0BD     		pop	{r4, r5, r6, r7, pc}
ARM GAS  C:\Users\strag\AppData\Local\Temp\cc3UPhIa.s 			page 111


 3810              		.cfi_endproc
 3811              	.LFE121:
 3813              		.section	.text.eDataClass,"ax",%progbits
 3814              		.align	2
 3815              		.global	eDataClass
 3816              		.thumb
 3817              		.thumb_func
 3819              	eDataClass:
 3820              	.LFB120:
 353:../user/source/DLT698.c ****     if (stMainOad.OI_date == OI_INSTANTFRZ ||
 3821              		.loc 1 353 0
 3822              		.cfi_startproc
 3823              		@ args = 0, pretend = 0, frame = 8
 3824              		@ frame_needed = 0, uses_anonymous_args = 0
 3825              		@ link register save eliminated.
 3826 0000 82B0     		sub	sp, sp, #8
 3827              	.LCFI14:
 3828              		.cfi_def_cfa_offset 8
 354:../user/source/DLT698.c ****         stMainOad.OI_date == OI_SECFRZ ||
 3829              		.loc 1 354 0
 3830 0002 80B2     		uxth	r0, r0
 356:../user/source/DLT698.c ****         stMainOad.OI_date == OI_HOURFRZ)
 3831              		.loc 1 356 0
 3832 0004 A0F5A043 		sub	r3, r0, #20480
 3833 0008 9BB2     		uxth	r3, r3
 354:../user/source/DLT698.c ****         stMainOad.OI_date == OI_SECFRZ ||
 3834              		.loc 1 354 0
 3835 000a 032B     		cmp	r3, #3
 3836 000c 0FD9     		bls	.L313
 361:../user/source/DLT698.c ****     {
 3837              		.loc 1 361 0
 3838 000e 45F20403 		movw	r3, #20484
 3839 0012 9842     		cmp	r0, r3
 3840 0014 0DD0     		beq	.L314
 365:../user/source/DLT698.c ****     {
 3841              		.loc 1 365 0
 3842 0016 45F20603 		movw	r3, #20486
 3843 001a 9842     		cmp	r0, r3
 3844 001c 0BD0     		beq	.L315
 369:../user/source/DLT698.c ****              stMainOad.OI_date < 0x3300)
 3845              		.loc 1 369 0
 3846 001e A0F54050 		sub	r0, r0, #12288
 3847 0022 80B2     		uxth	r0, r0
 3848 0024 B0F5407F 		cmp	r0, #768
 3849 0028 07D2     		bcs	.L316
 372:../user/source/DLT698.c ****     }
 3850              		.loc 1 372 0
 3851 002a 0520     		movs	r0, #5
 3852 002c 06E0     		b	.L312
 3853              	.L313:
 359:../user/source/DLT698.c ****     }
 3854              		.loc 1 359 0
 3855 002e 0220     		movs	r0, #2
 3856 0030 04E0     		b	.L312
 3857              	.L314:
 363:../user/source/DLT698.c ****     }
 3858              		.loc 1 363 0
ARM GAS  C:\Users\strag\AppData\Local\Temp\cc3UPhIa.s 			page 112


 3859 0032 0320     		movs	r0, #3
 3860 0034 02E0     		b	.L312
 3861              	.L315:
 367:../user/source/DLT698.c ****     }
 3862              		.loc 1 367 0
 3863 0036 0420     		movs	r0, #4
 3864 0038 00E0     		b	.L312
 3865              	.L316:
 375:../user/source/DLT698.c **** }
 3866              		.loc 1 375 0
 3867 003a 0020     		movs	r0, #0
 3868              	.L312:
 376:../user/source/DLT698.c **** 
 3869              		.loc 1 376 0
 3870 003c 02B0     		add	sp, sp, #8
 3871              	.LCFI15:
 3872              		.cfi_def_cfa_offset 0
 3873              		@ sp needed
 3874 003e 7047     		bx	lr
 3875              		.cfi_endproc
 3876              	.LFE120:
 3878              		.section	.text.dwGetResponseRecord,"ax",%progbits
 3879              		.align	2
 3880              		.thumb
 3881              		.thumb_func
 3883              	dwGetResponseRecord:
 3884              	.LFB122:
 529:../user/source/DLT698.c ****     UINT8 i, j, k;
 3885              		.loc 1 529 0
 3886              		.cfi_startproc
 3887              		@ args = 0, pretend = 0, frame = 0
 3888              		@ frame_needed = 0, uses_anonymous_args = 0
 3889              	.LVL793:
 3890 0000 2DE9F84F 		push	{r3, r4, r5, r6, r7, r8, r9, r10, fp, lr}
 3891              	.LCFI16:
 3892              		.cfi_def_cfa_offset 40
 3893              		.cfi_offset 3, -40
 3894              		.cfi_offset 4, -36
 3895              		.cfi_offset 5, -32
 3896              		.cfi_offset 6, -28
 3897              		.cfi_offset 7, -24
 3898              		.cfi_offset 8, -20
 3899              		.cfi_offset 9, -16
 3900              		.cfi_offset 10, -12
 3901              		.cfi_offset 11, -8
 3902              		.cfi_offset 14, -4
 3903              	.LVL794:
 546:../user/source/DLT698.c ****     {
 3904              		.loc 1 546 0
 3905 0004 4378     		ldrb	r3, [r0, #1]	@ zero_extendqisi2
 3906 0006 032B     		cmp	r3, #3
 3907 0008 02D0     		beq	.L320
 3908 000a 042B     		cmp	r3, #4
 3909 000c 04D0     		beq	.L321
 3910 000e 77E0     		b	.L342
 3911              	.L320:
 550:../user/source/DLT698.c ****         ucResultNum = 1;
ARM GAS  C:\Users\strag\AppData\Local\Temp\cc3UPhIa.s 			page 113


 3912              		.loc 1 550 0
 3913 0010 C51C     		adds	r5, r0, #3
 3914              	.LVL795:
 551:../user/source/DLT698.c ****     }
 3915              		.loc 1 551 0
 3916 0012 4FF00108 		mov	r8, #1
 553:../user/source/DLT698.c ****     case GetResponseRecordList:
 3917              		.loc 1 553 0
 3918 0016 05E0     		b	.L322
 3919              	.LVL796:
 3920              	.L321:
 557:../user/source/DLT698.c ****         if ((ucResultNum = *pucBuf++) > 127)
 3921              		.loc 1 557 0
 3922 0018 C51C     		adds	r5, r0, #3
 3923              	.LVL797:
 558:../user/source/DLT698.c ****         {
 3924              		.loc 1 558 0
 3925 001a 90F80080 		ldrb	r8, [r0]	@ zero_extendqisi2
 3926              	.LVL798:
 3927 001e 18F0800F 		tst	r8, #128
 3928 0022 71D1     		bne	.L334
 3929              	.LVL799:
 3930              	.L322:
 3931 0024 0E46     		mov	r6, r1
 3932              	.LVL800:
 568:../user/source/DLT698.c ****     //stCollData.uwConfigNo = uwConfigNo;
 3933              		.loc 1 568 0
 3934 0026 40F2FC52 		movw	r2, #1532
 3935 002a 0021     		movs	r1, #0
 3936              	.LVL801:
 3937 002c 3046     		mov	r0, r6
 3938 002e FFF7FEFF 		bl	memset
 3939              	.LVL802:
 571:../user/source/DLT698.c ****     {
 3940              		.loc 1 571 0
 3941 0032 0027     		movs	r7, #0
 3942 0034 5FE0     		b	.L323
 3943              	.LVL803:
 3944              	.L332:
 573:../user/source/DLT698.c **** #if 0
 3945              		.loc 1 573 0
 3946 0036 B11C     		adds	r1, r6, #2
 3947 0038 2846     		mov	r0, r5
 3948 003a FFF7FEFF 		bl	dwGetOad
 3949              	.LVL804:
 3950 003e 0446     		mov	r4, r0
 3951              	.LVL805:
 582:../user/source/DLT698.c ****         if (stCollData->eDataCls == D_CLASS_NULL)
 3952              		.loc 1 582 0
 3953 0040 D6F80200 		ldr	r0, [r6, #2]	@ unaligned
 3954              	.LVL806:
 3955 0044 FFF7FEFF 		bl	eDataClass
 3956              	.LVL807:
 3957 0048 3070     		strb	r0, [r6]
 583:../user/source/DLT698.c ****         {
 3958              		.loc 1 583 0
 3959 004a 0028     		cmp	r0, #0
ARM GAS  C:\Users\strag\AppData\Local\Temp\cc3UPhIa.s 			page 114


 3960 004c 60D0     		beq	.L335
 589:../user/source/DLT698.c ****         {
 3961              		.loc 1 589 0
 3962 004e 601C     		adds	r0, r4, #1
 3963 0050 2844     		add	r0, r0, r5
 3964              	.LVL808:
 3965 0052 15F80490 		ldrb	r9, [r5, r4]	@ zero_extendqisi2
 3966              	.LVL809:
 3967 0056 19F0800F 		tst	r9, #128
 3968 005a 5DD1     		bne	.L336
 3969 005c 0024     		movs	r4, #0
 3970 005e 0EE0     		b	.L324
 3971              	.LVL810:
 3972              	.L325:
 597:../user/source/DLT698.c ****             {
 3973              		.loc 1 597 0
 3974 0060 0378     		ldrb	r3, [r0]	@ zero_extendqisi2
 3975 0062 002B     		cmp	r3, #0
 3976 0064 5CD1     		bne	.L337
 599:../user/source/DLT698.c ****                 Ptr += dwGetOad(Ptr, &stCollData->stDataUnit[j].stOAD);
 3977              		.loc 1 599 0
 3978 0066 451C     		adds	r5, r0, #1
 3979              	.LVL811:
 600:../user/source/DLT698.c ****             }
 3980              		.loc 1 600 0
 3981 0068 04EB4403 		add	r3, r4, r4, lsl #1
 3982 006c 9900     		lsls	r1, r3, #2
 3983 006e 0831     		adds	r1, r1, #8
 3984 0070 3144     		add	r1, r1, r6
 3985 0072 2846     		mov	r0, r5
 3986 0074 FFF7FEFF 		bl	dwGetOad
 3987              	.LVL812:
 3988 0078 2844     		add	r0, r0, r5
 3989              	.LVL813:
 594:../user/source/DLT698.c ****         {
 3990              		.loc 1 594 0
 3991 007a 0134     		adds	r4, r4, #1
 3992              	.LVL814:
 3993 007c E4B2     		uxtb	r4, r4
 3994              	.LVL815:
 3995              	.L324:
 594:../user/source/DLT698.c ****         {
 3996              		.loc 1 594 0 is_stmt 0 discriminator 1
 3997 007e 4C45     		cmp	r4, r9
 3998 0080 EED3     		bcc	.L325
 610:../user/source/DLT698.c ****         {
 3999              		.loc 1 610 0 is_stmt 1
 4000 0082 0378     		ldrb	r3, [r0]	@ zero_extendqisi2
 4001 0084 0BB9     		cbnz	r3, .L326
 4002              	.LVL816:
 613:../user/source/DLT698.c ****         }
 4003              		.loc 1 613 0
 4004 0086 851C     		adds	r5, r0, #2
 4005              	.LVL817:
 4006 0088 33E0     		b	.L327
 4007              	.LVL818:
 4008              	.L326:
ARM GAS  C:\Users\strag\AppData\Local\Temp\cc3UPhIa.s 			page 115


 615:../user/source/DLT698.c ****         {
 4009              		.loc 1 615 0
 4010 008a 012B     		cmp	r3, #1
 4011 008c 4CD1     		bne	.L338
 4012              	.LVL819:
 618:../user/source/DLT698.c ****             {
 4013              		.loc 1 618 0
 4014 008e 851C     		adds	r5, r0, #2
 4015              	.LVL820:
 4016 0090 90F801B0 		ldrb	fp, [r0, #1]	@ zero_extendqisi2
 4017              	.LVL821:
 4018 0094 1BF0800F 		tst	fp, #128
 4019 0098 4AD1     		bne	.L339
 623:../user/source/DLT698.c ****             {
 4020              		.loc 1 623 0
 4021 009a BBF1000F 		cmp	fp, #0
 4022 009e 4BD0     		beq	.L340
 4023 00a0 4FF0000A 		mov	r10, #0
 4024 00a4 23E0     		b	.L328
 4025              	.LVL822:
 4026              	.L331:
 630:../user/source/DLT698.c ****                 for (k = 0; k < ucCSDNum; k++)
 4027              		.loc 1 630 0
 4028 00a6 0024     		movs	r4, #0
 4029 00a8 B471     		strb	r4, [r6, #6]
 4030              	.LVL823:
 631:../user/source/DLT698.c ****                 {
 4031              		.loc 1 631 0
 4032 00aa 1AE0     		b	.L329
 4033              	.LVL824:
 4034              	.L330:
 633:../user/source/DLT698.c ****                     {
 4035              		.loc 1 633 0
 4036 00ac 04EB4402 		add	r2, r4, r4, lsl #1
 4037 00b0 9300     		lsls	r3, r2, #2
 4038 00b2 3344     		add	r3, r3, r6
 4039 00b4 2946     		mov	r1, r5
 4040 00b6 9868     		ldr	r0, [r3, #8]
 4041 00b8 FFF7FEFF 		bl	dwDlt698DataLenByOAD
 4042              	.LVL825:
 4043 00bc 0028     		cmp	r0, #0
 4044 00be 3EDB     		blt	.L341
 638:../user/source/DLT698.c ****                     stCollData->stDataUnit[k].ucPtr = Ptr;
 4045              		.loc 1 638 0 discriminator 2
 4046 00c0 6300     		lsls	r3, r4, #1
 4047 00c2 1919     		adds	r1, r3, r4
 4048 00c4 8A00     		lsls	r2, r1, #2
 4049 00c6 1146     		mov	r1, r2
 4050 00c8 3244     		add	r2, r2, r6
 4051 00ca D081     		strh	r0, [r2, #14]	@ movhi
 639:../user/source/DLT698.c ****                     stCollData->stDataUnit[k].ucVal = 1;
 4052              		.loc 1 639 0 discriminator 2
 4053 00cc 1561     		str	r5, [r2, #16]
 640:../user/source/DLT698.c ****                     stCollData->ucDataNum++;
 4054              		.loc 1 640 0 discriminator 2
 4055 00ce 0A46     		mov	r2, r1
 4056 00d0 3244     		add	r2, r2, r6
ARM GAS  C:\Users\strag\AppData\Local\Temp\cc3UPhIa.s 			page 116


 4057 00d2 0123     		movs	r3, #1
 4058 00d4 1373     		strb	r3, [r2, #12]
 641:../user/source/DLT698.c **** 
 4059              		.loc 1 641 0 discriminator 2
 4060 00d6 B379     		ldrb	r3, [r6, #6]	@ zero_extendqisi2
 4061 00d8 0133     		adds	r3, r3, #1
 4062 00da B371     		strb	r3, [r6, #6]
 643:../user/source/DLT698.c **** 
 4063              		.loc 1 643 0 discriminator 2
 4064 00dc 0544     		add	r5, r5, r0
 4065              	.LVL826:
 631:../user/source/DLT698.c ****                 {
 4066              		.loc 1 631 0 discriminator 2
 4067 00de 0134     		adds	r4, r4, #1
 4068              	.LVL827:
 4069 00e0 E4B2     		uxtb	r4, r4
 4070              	.LVL828:
 4071              	.L329:
 631:../user/source/DLT698.c ****                 {
 4072              		.loc 1 631 0 is_stmt 0 discriminator 1
 4073 00e2 4C45     		cmp	r4, r9
 4074 00e4 E2D3     		bcc	.L330
 628:../user/source/DLT698.c ****             {
 4075              		.loc 1 628 0 is_stmt 1 discriminator 2
 4076 00e6 0AF1010A 		add	r10, r10, #1
 4077              	.LVL829:
 4078 00ea 5FFA8AFA 		uxtb	r10, r10
 4079              	.LVL830:
 4080              	.L328:
 628:../user/source/DLT698.c ****             {
 4081              		.loc 1 628 0 is_stmt 0 discriminator 1
 4082 00ee DA45     		cmp	r10, fp
 4083 00f0 D9D3     		bcc	.L331
 4084              	.LVL831:
 4085              	.L327:
 571:../user/source/DLT698.c ****     {
 4086              		.loc 1 571 0 is_stmt 1 discriminator 2
 4087 00f2 0137     		adds	r7, r7, #1
 4088              	.LVL832:
 4089 00f4 FFB2     		uxtb	r7, r7
 4090              	.LVL833:
 4091              	.L323:
 571:../user/source/DLT698.c ****     {
 4092              		.loc 1 571 0 is_stmt 0 discriminator 1
 4093 00f6 4745     		cmp	r7, r8
 4094 00f8 9DD3     		bcc	.L332
 822:../user/source/DLT698.c **** }
 4095              		.loc 1 822 0 is_stmt 1
 4096 00fa 0120     		movs	r0, #1
 4097 00fc BDE8F88F 		pop	{r3, r4, r5, r6, r7, r8, r9, r10, fp, pc}
 4098              	.LVL834:
 4099              	.L342:
 565:../user/source/DLT698.c ****     }
 4100              		.loc 1 565 0
 4101 0100 4FF0FF30 		mov	r0, #-1
 4102              	.LVL835:
 4103 0104 BDE8F88F 		pop	{r3, r4, r5, r6, r7, r8, r9, r10, fp, pc}
ARM GAS  C:\Users\strag\AppData\Local\Temp\cc3UPhIa.s 			page 117


 4104              	.LVL836:
 4105              	.L334:
 560:../user/source/DLT698.c ****         }
 4106              		.loc 1 560 0
 4107 0108 4FF0FF30 		mov	r0, #-1
 4108              	.LVL837:
 4109 010c BDE8F88F 		pop	{r3, r4, r5, r6, r7, r8, r9, r10, fp, pc}
 4110              	.LVL838:
 4111              	.L335:
 585:../user/source/DLT698.c ****         }
 4112              		.loc 1 585 0
 4113 0110 4FF0FF30 		mov	r0, #-1
 4114 0114 BDE8F88F 		pop	{r3, r4, r5, r6, r7, r8, r9, r10, fp, pc}
 4115              	.LVL839:
 4116              	.L336:
 591:../user/source/DLT698.c ****         }
 4117              		.loc 1 591 0
 4118 0118 4FF0FF30 		mov	r0, #-1
 4119              	.LVL840:
 4120 011c BDE8F88F 		pop	{r3, r4, r5, r6, r7, r8, r9, r10, fp, pc}
 4121              	.LVL841:
 4122              	.L337:
 605:../user/source/DLT698.c ****             }
 4123              		.loc 1 605 0
 4124 0120 4FF0FF30 		mov	r0, #-1
 4125              	.LVL842:
 4126 0124 BDE8F88F 		pop	{r3, r4, r5, r6, r7, r8, r9, r10, fp, pc}
 4127              	.LVL843:
 4128              	.L338:
 818:../user/source/DLT698.c ****         }
 4129              		.loc 1 818 0
 4130 0128 4FF0FF30 		mov	r0, #-1
 4131              	.LVL844:
 4132 012c BDE8F88F 		pop	{r3, r4, r5, r6, r7, r8, r9, r10, fp, pc}
 4133              	.LVL845:
 4134              	.L339:
 620:../user/source/DLT698.c ****             }
 4135              		.loc 1 620 0
 4136 0130 4FF0FF30 		mov	r0, #-1
 4137 0134 BDE8F88F 		pop	{r3, r4, r5, r6, r7, r8, r9, r10, fp, pc}
 4138              	.LVL846:
 4139              	.L340:
 625:../user/source/DLT698.c ****             }
 4140              		.loc 1 625 0
 4141 0138 0020     		movs	r0, #0
 4142 013a BDE8F88F 		pop	{r3, r4, r5, r6, r7, r8, r9, r10, fp, pc}
 4143              	.LVL847:
 4144              	.L341:
 635:../user/source/DLT698.c ****                     }
 4145              		.loc 1 635 0
 4146 013e 4FF0FF30 		mov	r0, #-1
 4147              	.LVL848:
 823:../user/source/DLT698.c **** 
 4148              		.loc 1 823 0
 4149 0142 BDE8F88F 		pop	{r3, r4, r5, r6, r7, r8, r9, r10, fp, pc}
 4150              		.cfi_endproc
 4151              	.LFE122:
ARM GAS  C:\Users\strag\AppData\Local\Temp\cc3UPhIa.s 			page 118


 4153 0146 00BF     		.section	.text.dwAPduAnalyze,"ax",%progbits
 4154              		.align	2
 4155              		.global	dwAPduAnalyze
 4156              		.thumb
 4157              		.thumb_func
 4159              	dwAPduAnalyze:
 4160              	.LFB116:
 237:../user/source/DLT698.c ****     //int Len = 0, Bytes = 0;
 4161              		.loc 1 237 0
 4162              		.cfi_startproc
 4163              		@ args = 0, pretend = 0, frame = 0
 4164              		@ frame_needed = 0, uses_anonymous_args = 0
 4165              	.LVL849:
 4166 0000 08B5     		push	{r3, lr}
 4167              	.LCFI17:
 4168              		.cfi_def_cfa_offset 8
 4169              		.cfi_offset 3, -8
 4170              		.cfi_offset 14, -4
 4171              	.LVL850:
 242:../user/source/DLT698.c ****     {
 4172              		.loc 1 242 0
 4173 0002 0378     		ldrb	r3, [r0]	@ zero_extendqisi2
 4174 0004 852B     		cmp	r3, #133
 4175 0006 0ED1     		bne	.L349
 4176 0008 1146     		mov	r1, r2
 4177              	.LVL851:
 244:../user/source/DLT698.c ****         {
 4178              		.loc 1 244 0
 4179 000a 4378     		ldrb	r3, [r0, #1]	@ zero_extendqisi2
 4180 000c 013B     		subs	r3, r3, #1
 4181 000e 032B     		cmp	r3, #3
 4182 0010 0CD8     		bhi	.L350
 4183 0012 DFE803F0 		tbb	[pc, r3]
 4184              	.LVL852:
 4185              	.L347:
 4186 0016 02       		.byte	(.L346-.L347)/2
 4187 0017 02       		.byte	(.L346-.L347)/2
 4188 0018 05       		.byte	(.L348-.L347)/2
 4189 0019 05       		.byte	(.L348-.L347)/2
 4190              		.p2align 1
 4191              	.L346:
 249:../user/source/DLT698.c ****         }
 4192              		.loc 1 249 0
 4193 001a FFF7FEFF 		bl	dwGetResponseNormal
 4194              	.LVL853:
 251:../user/source/DLT698.c ****         case GetResponseRecord:
 4195              		.loc 1 251 0
 4196 001e 08BD     		pop	{r3, pc}
 4197              	.LVL854:
 4198              	.L348:
 255:../user/source/DLT698.c ****         }
 4199              		.loc 1 255 0
 4200 0020 FFF7FEFF 		bl	dwGetResponseRecord
 4201              	.LVL855:
 257:../user/source/DLT698.c ****         case GetResponseNext:
 4202              		.loc 1 257 0
 4203 0024 08BD     		pop	{r3, pc}
ARM GAS  C:\Users\strag\AppData\Local\Temp\cc3UPhIa.s 			page 119


 4204              	.LVL856:
 4205              	.L349:
 269:../user/source/DLT698.c ****     }
 4206              		.loc 1 269 0
 4207 0026 4FF0FF30 		mov	r0, #-1
 4208              	.LVL857:
 4209 002a 08BD     		pop	{r3, pc}
 4210              	.LVL858:
 4211              	.L350:
 239:../user/source/DLT698.c ****     COLL_STORE_DATA *pstCollData = pstCollStoreData;
 4212              		.loc 1 239 0
 4213 002c 4FF0FF30 		mov	r0, #-1
 4214              	.LVL859:
 273:../user/source/DLT698.c **** 
 4215              		.loc 1 273 0
 4216 0030 08BD     		pop	{r3, pc}
 4217              		.cfi_endproc
 4218              	.LFE116:
 4220 0032 00BF     		.section	.text.v698VoltageModify,"ax",%progbits
 4221              		.align	2
 4222              		.global	v698VoltageModify
 4223              		.thumb
 4224              		.thumb_func
 4226              	v698VoltageModify:
 4227              	.LFB126:
1769:../user/source/DLT698.c **** 
1770:../user/source/DLT698.c **** void v698VoltageModify(DATA_UNIT *pDataUnit)
1771:../user/source/DLT698.c **** {
 4228              		.loc 1 1771 0
 4229              		.cfi_startproc
 4230              		@ args = 0, pretend = 0, frame = 0
 4231              		@ frame_needed = 0, uses_anonymous_args = 0
 4232              	.LVL860:
 4233 0000 70B5     		push	{r4, r5, r6, lr}
 4234              	.LCFI18:
 4235              		.cfi_def_cfa_offset 16
 4236              		.cfi_offset 4, -16
 4237              		.cfi_offset 5, -12
 4238              		.cfi_offset 6, -8
 4239              		.cfi_offset 14, -4
 4240              	.LVL861:
1772:../user/source/DLT698.c ****     DATA_UNIT *pdata = pDataUnit;
1773:../user/source/DLT698.c ****     UINT8 i;
1774:../user/source/DLT698.c ****     /*Ptr是指向APDU数据段的指针，以下直接修改APDU原始帧*/
1775:../user/source/DLT698.c ****     UINT8 *Ptr = pdata->ucPtr;
 4241              		.loc 1 1775 0
 4242 0002 8468     		ldr	r4, [r0, #8]
 4243              	.LVL862:
1776:../user/source/DLT698.c ****     UINT8 ucArrays;
1777:../user/source/DLT698.c ****     int dwValue;
1778:../user/source/DLT698.c ****     int dwVoltageValue[3];
1779:../user/source/DLT698.c **** 
1780:../user/source/DLT698.c ****     if (pdata->ucVal == 0)
 4244              		.loc 1 1780 0
 4245 0004 0379     		ldrb	r3, [r0, #4]	@ zero_extendqisi2
 4246 0006 EBB1     		cbz	r3, .L352
1781:../user/source/DLT698.c ****         return;
ARM GAS  C:\Users\strag\AppData\Local\Temp\cc3UPhIa.s 			page 120


1782:../user/source/DLT698.c ****     if (*Ptr == 0) //NULL
 4247              		.loc 1 1782 0
 4248 0008 2378     		ldrb	r3, [r4]	@ zero_extendqisi2
 4249 000a DBB1     		cbz	r3, .L352
 4250              	.LVL863:
1783:../user/source/DLT698.c ****     {
1784:../user/source/DLT698.c ****         return;
1785:../user/source/DLT698.c ****     }
1786:../user/source/DLT698.c ****     else if (*Ptr++ == 1) //array
 4251              		.loc 1 1786 0
 4252 000c 012B     		cmp	r3, #1
 4253 000e 19D1     		bne	.L352
 4254              	.LVL864:
1787:../user/source/DLT698.c ****     {
1788:../user/source/DLT698.c ****         ucArrays = *Ptr++; //电压值个数，对应A/B/C相
 4255              		.loc 1 1788 0
 4256 0010 6678     		ldrb	r6, [r4, #1]	@ zero_extendqisi2
 4257              	.LVL865:
1789:../user/source/DLT698.c ****         Ptr++;
 4258              		.loc 1 1789 0
 4259 0012 0334     		adds	r4, r4, #3
 4260              	.LVL866:
1790:../user/source/DLT698.c ****         for (i = 0; i < ucArrays; i++)
 4261              		.loc 1 1790 0
 4262 0014 0025     		movs	r5, #0
 4263 0016 13E0     		b	.L355
 4264              	.LVL867:
 4265              	.L358:
1791:../user/source/DLT698.c ****         {
1792:../user/source/DLT698.c ****             dwValue = MAKE_WORD(*Ptr, *(Ptr + 1));
 4266              		.loc 1 1792 0
 4267 0018 6378     		ldrb	r3, [r4, #1]	@ zero_extendqisi2
 4268 001a 2078     		ldrb	r0, [r4]	@ zero_extendqisi2
 4269 001c 43EA0020 		orr	r0, r3, r0, lsl #8
 4270              	.LVL868:
1793:../user/source/DLT698.c ****             if ((dwValue > Voltage_MAX) || (dwValue < Voltage_MIN))
 4271              		.loc 1 1793 0
 4272 0020 094B     		ldr	r3, .L360
 4273 0022 1B68     		ldr	r3, [r3]
 4274 0024 9842     		cmp	r0, r3
 4275 0026 03DC     		bgt	.L356
 4276              		.loc 1 1793 0 is_stmt 0 discriminator 1
 4277 0028 084B     		ldr	r3, .L360+4
 4278 002a 1B68     		ldr	r3, [r3]
 4279 002c 9842     		cmp	r0, r3
 4280 002e 04DA     		bge	.L357
 4281              	.L356:
1794:../user/source/DLT698.c ****             {
1795:../user/source/DLT698.c ****                 dwVoltageValue[i] = Voltage_Modifier_Method(dwValue);
 4282              		.loc 1 1795 0 is_stmt 1
 4283 0030 FFF7FEFF 		bl	Voltage_Modifier_Method
 4284              	.LVL869:
1796:../user/source/DLT698.c ****                 *Ptr = MSB(dwVoltageValue[i]);
 4285              		.loc 1 1796 0
 4286 0034 0312     		asrs	r3, r0, #8
 4287 0036 2370     		strb	r3, [r4]
1797:../user/source/DLT698.c ****                 *(Ptr + 1) = LSB(dwVoltageValue[i]);
ARM GAS  C:\Users\strag\AppData\Local\Temp\cc3UPhIa.s 			page 121


 4288              		.loc 1 1797 0
 4289 0038 6070     		strb	r0, [r4, #1]
 4290              	.L357:
1798:../user/source/DLT698.c ****             }
1799:../user/source/DLT698.c ****             Ptr += 3;
 4291              		.loc 1 1799 0 discriminator 2
 4292 003a 0334     		adds	r4, r4, #3
 4293              	.LVL870:
1790:../user/source/DLT698.c ****         {
 4294              		.loc 1 1790 0 discriminator 2
 4295 003c 0135     		adds	r5, r5, #1
 4296              	.LVL871:
 4297 003e EDB2     		uxtb	r5, r5
 4298              	.LVL872:
 4299              	.L355:
1790:../user/source/DLT698.c ****         {
 4300              		.loc 1 1790 0 is_stmt 0 discriminator 1
 4301 0040 B542     		cmp	r5, r6
 4302 0042 E9D3     		bcc	.L358
 4303              	.LVL873:
 4304              	.L352:
 4305 0044 70BD     		pop	{r4, r5, r6, pc}
 4306              	.L361:
 4307 0046 00BF     		.align	2
 4308              	.L360:
 4309 0048 00000000 		.word	Voltage_MAX
 4310 004c 00000000 		.word	Voltage_MIN
 4311              		.cfi_endproc
 4312              	.LFE126:
 4314              		.section	.text.v698EnergyModify,"ax",%progbits
 4315              		.align	2
 4316              		.global	v698EnergyModify
 4317              		.thumb
 4318              		.thumb_func
 4320              	v698EnergyModify:
 4321              	.LFB127:
1800:../user/source/DLT698.c ****         }
1801:../user/source/DLT698.c ****     }
1802:../user/source/DLT698.c **** }
1803:../user/source/DLT698.c **** 
1804:../user/source/DLT698.c **** void v698EnergyModify(DATA_UNIT *pDataUnit)
1805:../user/source/DLT698.c **** {
 4322              		.loc 1 1805 0 is_stmt 1
 4323              		.cfi_startproc
 4324              		@ args = 0, pretend = 0, frame = 24
 4325              		@ frame_needed = 0, uses_anonymous_args = 0
 4326              	.LVL874:
 4327 0000 F0B5     		push	{r4, r5, r6, r7, lr}
 4328              	.LCFI19:
 4329              		.cfi_def_cfa_offset 20
 4330              		.cfi_offset 4, -20
 4331              		.cfi_offset 5, -16
 4332              		.cfi_offset 6, -12
 4333              		.cfi_offset 7, -8
 4334              		.cfi_offset 14, -4
 4335 0002 87B0     		sub	sp, sp, #28
 4336              	.LCFI20:
ARM GAS  C:\Users\strag\AppData\Local\Temp\cc3UPhIa.s 			page 122


 4337              		.cfi_def_cfa_offset 48
 4338              	.LVL875:
1806:../user/source/DLT698.c ****     DATA_UNIT *pdata = pDataUnit;
1807:../user/source/DLT698.c ****     UINT8 i;
1808:../user/source/DLT698.c ****     /*Ptr是指向APDU数据段的指针，以下直接修改APDU原始帧*/
1809:../user/source/DLT698.c ****     UINT8 *Ptr = pdata->ucPtr;
 4339              		.loc 1 1809 0
 4340 0004 8468     		ldr	r4, [r0, #8]
 4341              	.LVL876:
1810:../user/source/DLT698.c ****     UINT8 ucArrays;
1811:../user/source/DLT698.c ****     uint32_t dwEnergyValue[5];
1812:../user/source/DLT698.c ****     bzero(dwEnergyValue, sizeof(dwEnergyValue));
 4342              		.loc 1 1812 0
 4343 0006 0023     		movs	r3, #0
 4344 0008 0193     		str	r3, [sp, #4]
 4345 000a 0293     		str	r3, [sp, #8]
 4346 000c 0393     		str	r3, [sp, #12]
 4347 000e 0493     		str	r3, [sp, #16]
 4348 0010 0593     		str	r3, [sp, #20]
1813:../user/source/DLT698.c **** 
1814:../user/source/DLT698.c ****     if (pdata->ucVal == 0)
 4349              		.loc 1 1814 0
 4350 0012 0379     		ldrb	r3, [r0, #4]	@ zero_extendqisi2
 4351 0014 002B     		cmp	r3, #0
 4352 0016 47D0     		beq	.L362
1815:../user/source/DLT698.c ****         return;
1816:../user/source/DLT698.c ****     if (*Ptr == 0) //NULL
 4353              		.loc 1 1816 0
 4354 0018 2378     		ldrb	r3, [r4]	@ zero_extendqisi2
 4355 001a 002B     		cmp	r3, #0
 4356 001c 44D0     		beq	.L362
 4357              	.LVL877:
1817:../user/source/DLT698.c ****     {
1818:../user/source/DLT698.c ****         return;
1819:../user/source/DLT698.c ****     }
1820:../user/source/DLT698.c ****     else if (*Ptr++ == 1) //array
 4358              		.loc 1 1820 0
 4359 001e 012B     		cmp	r3, #1
 4360 0020 42D1     		bne	.L362
 4361              	.LVL878:
1821:../user/source/DLT698.c ****     {
1822:../user/source/DLT698.c ****         ucArrays = *Ptr++; //电量值个数，对应总、尖、峰、平、谷
 4362              		.loc 1 1822 0
 4363 0022 6778     		ldrb	r7, [r4, #1]	@ zero_extendqisi2
 4364              	.LVL879:
1823:../user/source/DLT698.c ****         Ptr++;             //data
1824:../user/source/DLT698.c ****         Ptr += 5;          //跳过正向有功总，从尖开始修改
 4365              		.loc 1 1824 0
 4366 0024 0834     		adds	r4, r4, #8
 4367              	.LVL880:
1825:../user/source/DLT698.c ****         for (i = 1; i < ucArrays; i++)
 4368              		.loc 1 1825 0
 4369 0026 0125     		movs	r5, #1
 4370 0028 2EE0     		b	.L365
 4371              	.LVL881:
 4372              	.L366:
1826:../user/source/DLT698.c ****         {
ARM GAS  C:\Users\strag\AppData\Local\Temp\cc3UPhIa.s 			page 123


1827:../user/source/DLT698.c ****             dwEnergyValue[i] = MAKE_LONG(MAKE_WORD(*Ptr, *(Ptr + 1)), MAKE_WORD(*(Ptr + 2), *(Ptr +
 4373              		.loc 1 1827 0 discriminator 3
 4374 002a E378     		ldrb	r3, [r4, #3]	@ zero_extendqisi2
 4375 002c A078     		ldrb	r0, [r4, #2]	@ zero_extendqisi2
 4376 002e 43EA0023 		orr	r3, r3, r0, lsl #8
 4377 0032 6278     		ldrb	r2, [r4, #1]	@ zero_extendqisi2
 4378 0034 2078     		ldrb	r0, [r4]	@ zero_extendqisi2
 4379 0036 42EA0020 		orr	r0, r2, r0, lsl #8
 4380 003a 43EA0040 		orr	r0, r3, r0, lsl #16
 4381 003e 06AB     		add	r3, sp, #24
 4382 0040 03EB8506 		add	r6, r3, r5, lsl #2
 4383 0044 46F8140C 		str	r0, [r6, #-20]
1828:../user/source/DLT698.c ****             dwEnergyValue[i] = vNow_Frozen_Modify_Mothod(dwEnergyValue[i],
1829:../user/source/DLT698.c ****                                                          FLASH_REAL_1DAYFROZEN_ADDR + 4 * i,
 4384              		.loc 1 1829 0 discriminator 3
 4385 0048 05F10071 		add	r1, r5, #33554432
 4386 004c 01F5F841 		add	r1, r1, #31744
1830:../user/source/DLT698.c ****                                                          FLASH_MODIFIED_1DAYFROZEN_ADDR + 4 * i);
 4387              		.loc 1 1830 0 discriminator 3
 4388 0050 164A     		ldr	r2, .L369
 4389 0052 2A44     		add	r2, r2, r5
1828:../user/source/DLT698.c ****             dwEnergyValue[i] = vNow_Frozen_Modify_Mothod(dwEnergyValue[i],
 4390              		.loc 1 1828 0 discriminator 3
 4391 0054 9200     		lsls	r2, r2, #2
 4392 0056 8900     		lsls	r1, r1, #2
 4393 0058 FFF7FEFF 		bl	vNow_Frozen_Modify_Mothod
 4394              	.LVL882:
 4395 005c 46F8140C 		str	r0, [r6, #-20]
1831:../user/source/DLT698.c ****             *Ptr = MSB(MSW(dwEnergyValue[i]));
 4396              		.loc 1 1831 0 discriminator 3
 4397 0060 000E     		lsrs	r0, r0, #24
 4398 0062 2070     		strb	r0, [r4]
1832:../user/source/DLT698.c ****             *(Ptr + 1) = LSB(MSW(dwEnergyValue[i]));
 4399              		.loc 1 1832 0 discriminator 3
 4400 0064 36F8123C 		ldrh	r3, [r6, #-18]
 4401 0068 6370     		strb	r3, [r4, #1]
1833:../user/source/DLT698.c ****             *(Ptr + 2) = MSB(LSW(dwEnergyValue[i]));
 4402              		.loc 1 1833 0 discriminator 3
 4403 006a 56F8143C 		ldr	r3, [r6, #-20]
 4404 006e 1B0A     		lsrs	r3, r3, #8
 4405 0070 A370     		strb	r3, [r4, #2]
1834:../user/source/DLT698.c ****             *(Ptr + 3) = LSB(LSW(dwEnergyValue[i]));
 4406              		.loc 1 1834 0 discriminator 3
 4407 0072 56F8143C 		ldr	r3, [r6, #-20]
 4408 0076 E370     		strb	r3, [r4, #3]
1835:../user/source/DLT698.c ****             Ptr += 5; //1位类型加4位数据
 4409              		.loc 1 1835 0 discriminator 3
 4410 0078 0534     		adds	r4, r4, #5
 4411              	.LVL883:
1836:../user/source/DLT698.c ****             dwEnergyValue[0] += dwEnergyValue[i];
 4412              		.loc 1 1836 0 discriminator 3
 4413 007a 56F8143C 		ldr	r3, [r6, #-20]
 4414 007e 019A     		ldr	r2, [sp, #4]
 4415 0080 1344     		add	r3, r3, r2
 4416 0082 0193     		str	r3, [sp, #4]
1825:../user/source/DLT698.c ****         {
 4417              		.loc 1 1825 0 discriminator 3
ARM GAS  C:\Users\strag\AppData\Local\Temp\cc3UPhIa.s 			page 124


 4418 0084 0135     		adds	r5, r5, #1
 4419              	.LVL884:
 4420 0086 EDB2     		uxtb	r5, r5
 4421              	.LVL885:
 4422              	.L365:
1825:../user/source/DLT698.c ****         {
 4423              		.loc 1 1825 0 is_stmt 0 discriminator 1
 4424 0088 BD42     		cmp	r5, r7
 4425 008a CED3     		bcc	.L366
1837:../user/source/DLT698.c ****         }
1838:../user/source/DLT698.c ****         Ptr -= 5 * ucArrays; //总
 4426              		.loc 1 1838 0 is_stmt 1
 4427 008c 07EB8707 		add	r7, r7, r7, lsl #2
 4428              	.LVL886:
 4429 0090 E41B     		subs	r4, r4, r7
 4430              	.LVL887:
1839:../user/source/DLT698.c ****         *Ptr = MSB(MSW(dwEnergyValue[0]));
 4431              		.loc 1 1839 0
 4432 0092 9DF80730 		ldrb	r3, [sp, #7]	@ zero_extendqisi2
 4433 0096 2370     		strb	r3, [r4]
1840:../user/source/DLT698.c ****         *(Ptr + 1) = LSB(MSW(dwEnergyValue[0]));
 4434              		.loc 1 1840 0
 4435 0098 BDF80630 		ldrh	r3, [sp, #6]
 4436 009c 6370     		strb	r3, [r4, #1]
1841:../user/source/DLT698.c ****         *(Ptr + 2) = MSB(LSW(dwEnergyValue[0]));
 4437              		.loc 1 1841 0
 4438 009e 019B     		ldr	r3, [sp, #4]
 4439 00a0 1B0A     		lsrs	r3, r3, #8
 4440 00a2 A370     		strb	r3, [r4, #2]
1842:../user/source/DLT698.c ****         *(Ptr + 3) = LSB(LSW(dwEnergyValue[0]));
 4441              		.loc 1 1842 0
 4442 00a4 019B     		ldr	r3, [sp, #4]
 4443 00a6 E370     		strb	r3, [r4, #3]
 4444              	.LVL888:
 4445              	.L362:
1843:../user/source/DLT698.c ****     }
1844:../user/source/DLT698.c **** }...
 4446              		.loc 1 1844 0
 4447 00a8 07B0     		add	sp, sp, #28
 4448              	.LCFI21:
 4449              		.cfi_def_cfa_offset 20
 4450              		@ sp needed
 4451 00aa F0BD     		pop	{r4, r5, r6, r7, pc}
 4452              	.L370:
 4453              		.align	2
 4454              	.L369:
 4455 00ac 0F7C0002 		.word	33586191
 4456              		.cfi_endproc
 4457              	.LFE127:
 4459              		.global	fcstab
 4460              		.section	.rodata.fcstab,"a",%progbits
 4461              		.align	2
 4462              		.set	.LANCHOR0,. + 0
 4465              	fcstab:
 4466 0000 0000     		.short	0
 4467 0002 8911     		.short	4489
 4468 0004 1223     		.short	8978
ARM GAS  C:\Users\strag\AppData\Local\Temp\cc3UPhIa.s 			page 125


 4469 0006 9B32     		.short	12955
 4470 0008 2446     		.short	17956
 4471 000a AD57     		.short	22445
 4472 000c 3665     		.short	25910
 4473 000e BF74     		.short	29887
 4474 0010 488C     		.short	-29624
 4475 0012 C19D     		.short	-25151
 4476 0014 5AAF     		.short	-20646
 4477 0016 D3BE     		.short	-16685
 4478 0018 6CCA     		.short	-13716
 4479 001a E5DB     		.short	-9243
 4480 001c 7EE9     		.short	-5762
 4481 001e F7F8     		.short	-1801
 4482 0020 8110     		.short	4225
 4483 0022 0801     		.short	264
 4484 0024 9333     		.short	13203
 4485 0026 1A22     		.short	8730
 4486 0028 A556     		.short	22181
 4487 002a 2C47     		.short	18220
 4488 002c B775     		.short	30135
 4489 002e 3E64     		.short	25662
 4490 0030 C99C     		.short	-25399
 4491 0032 408D     		.short	-29376
 4492 0034 DBBF     		.short	-16421
 4493 0036 52AE     		.short	-20910
 4494 0038 EDDA     		.short	-9491
 4495 003a 64CB     		.short	-13468
 4496 003c FFF9     		.short	-1537
 4497 003e 76E8     		.short	-6026
 4498 0040 0221     		.short	8450
 4499 0042 8B30     		.short	12427
 4500 0044 1002     		.short	528
 4501 0046 9913     		.short	5017
 4502 0048 2667     		.short	26406
 4503 004a AF76     		.short	30383
 4504 004c 3444     		.short	17460
 4505 004e BD55     		.short	21949
 4506 0050 4AAD     		.short	-21174
 4507 0052 C3BC     		.short	-17213
 4508 0054 588E     		.short	-29096
 4509 0056 D19F     		.short	-24623
 4510 0058 6EEB     		.short	-5266
 4511 005a E7FA     		.short	-1305
 4512 005c 7CC8     		.short	-14212
 4513 005e F5D9     		.short	-9739
 4514 0060 8331     		.short	12675
 4515 0062 0A20     		.short	8202
 4516 0064 9112     		.short	4753
 4517 0066 1803     		.short	792
 4518 0068 A777     		.short	30631
 4519 006a 2E66     		.short	26158
 4520 006c B554     		.short	21685
 4521 006e 3C45     		.short	17724
 4522 0070 CBBD     		.short	-16949
 4523 0072 42AC     		.short	-21438
 4524 0074 D99E     		.short	-24871
 4525 0076 508F     		.short	-28848
ARM GAS  C:\Users\strag\AppData\Local\Temp\cc3UPhIa.s 			page 126


 4526 0078 EFFB     		.short	-1041
 4527 007a 66EA     		.short	-5530
 4528 007c FDD8     		.short	-9987
 4529 007e 74C9     		.short	-13964
 4530 0080 0442     		.short	16900
 4531 0082 8D53     		.short	21389
 4532 0084 1661     		.short	24854
 4533 0086 9F70     		.short	28831
 4534 0088 2004     		.short	1056
 4535 008a A915     		.short	5545
 4536 008c 3227     		.short	10034
 4537 008e BB36     		.short	14011
 4538 0090 4CCE     		.short	-12724
 4539 0092 C5DF     		.short	-8251
 4540 0094 5EED     		.short	-4770
 4541 0096 D7FC     		.short	-809
 4542 0098 6888     		.short	-30616
 4543 009a E199     		.short	-26143
 4544 009c 7AAB     		.short	-21638
 4545 009e F3BA     		.short	-17677
 4546 00a0 8552     		.short	21125
 4547 00a2 0C43     		.short	17164
 4548 00a4 9771     		.short	29079
 4549 00a6 1E60     		.short	24606
 4550 00a8 A114     		.short	5281
 4551 00aa 2805     		.short	1320
 4552 00ac B337     		.short	14259
 4553 00ae 3A26     		.short	9786
 4554 00b0 CDDE     		.short	-8499
 4555 00b2 44CF     		.short	-12476
 4556 00b4 DFFD     		.short	-545
 4557 00b6 56EC     		.short	-5034
 4558 00b8 E998     		.short	-26391
 4559 00ba 6089     		.short	-30368
 4560 00bc FBBB     		.short	-17413
 4561 00be 72AA     		.short	-21902
 4562 00c0 0663     		.short	25350
 4563 00c2 8F72     		.short	29327
 4564 00c4 1440     		.short	16404
 4565 00c6 9D51     		.short	20893
 4566 00c8 2225     		.short	9506
 4567 00ca AB34     		.short	13483
 4568 00cc 3006     		.short	1584
 4569 00ce B917     		.short	6073
 4570 00d0 4EEF     		.short	-4274
 4571 00d2 C7FE     		.short	-313
 4572 00d4 5CCC     		.short	-13220
 4573 00d6 D5DD     		.short	-8747
 4574 00d8 6AA9     		.short	-22166
 4575 00da E3B8     		.short	-18205
 4576 00dc 788A     		.short	-30088
 4577 00de F19B     		.short	-25615
 4578 00e0 8773     		.short	29575
 4579 00e2 0E62     		.short	25102
 4580 00e4 9550     		.short	20629
 4581 00e6 1C41     		.short	16668
 4582 00e8 A335     		.short	13731
ARM GAS  C:\Users\strag\AppData\Local\Temp\cc3UPhIa.s 			page 127


 4583 00ea 2A24     		.short	9258
 4584 00ec B116     		.short	5809
 4585 00ee 3807     		.short	1848
 4586 00f0 CFFF     		.short	-49
 4587 00f2 46EE     		.short	-4538
 4588 00f4 DDDC     		.short	-8995
 4589 00f6 54CD     		.short	-12972
 4590 00f8 EBB9     		.short	-17941
 4591 00fa 62A8     		.short	-22430
 4592 00fc F99A     		.short	-25863
 4593 00fe 708B     		.short	-29840
 4594 0100 0884     		.short	-31736
 4595 0102 8195     		.short	-27263
 4596 0104 1AA7     		.short	-22758
 4597 0106 93B6     		.short	-18797
 4598 0108 2CC2     		.short	-15828
 4599 010a A5D3     		.short	-11355
 4600 010c 3EE1     		.short	-7874
 4601 010e B7F0     		.short	-3913
 4602 0110 4008     		.short	2112
 4603 0112 C919     		.short	6601
 4604 0114 522B     		.short	11090
 4605 0116 DB3A     		.short	15067
 4606 0118 644E     		.short	20068
 4607 011a ED5F     		.short	24557
 4608 011c 766D     		.short	28022
 4609 011e FF7C     		.short	31999
 4610 0120 8994     		.short	-27511
 4611 0122 0085     		.short	-31488
 4612 0124 9BB7     		.short	-18533
 4613 0126 12A6     		.short	-23022
 4614 0128 ADD2     		.short	-11603
 4615 012a 24C3     		.short	-15580
 4616 012c BFF1     		.short	-3649
 4617 012e 36E0     		.short	-8138
 4618 0130 C118     		.short	6337
 4619 0132 4809     		.short	2376
 4620 0134 D33B     		.short	15315
 4621 0136 5A2A     		.short	10842
 4622 0138 E55E     		.short	24293
 4623 013a 6C4F     		.short	20332
 4624 013c F77D     		.short	32247
 4625 013e 7E6C     		.short	27774
 4626 0140 0AA5     		.short	-23286
 4627 0142 83B4     		.short	-19325
 4628 0144 1886     		.short	-31208
 4629 0146 9197     		.short	-26735
 4630 0148 2EE3     		.short	-7378
 4631 014a A7F2     		.short	-3417
 4632 014c 3CC0     		.short	-16324
 4633 014e B5D1     		.short	-11851
 4634 0150 4229     		.short	10562
 4635 0152 CB38     		.short	14539
 4636 0154 500A     		.short	2640
 4637 0156 D91B     		.short	7129
 4638 0158 666F     		.short	28518
 4639 015a EF7E     		.short	32495
ARM GAS  C:\Users\strag\AppData\Local\Temp\cc3UPhIa.s 			page 128


 4640 015c 744C     		.short	19572
 4641 015e FD5D     		.short	24061
 4642 0160 8BB5     		.short	-19061
 4643 0162 02A4     		.short	-23550
 4644 0164 9996     		.short	-26983
 4645 0166 1087     		.short	-30960
 4646 0168 AFF3     		.short	-3153
 4647 016a 26E2     		.short	-7642
 4648 016c BDD0     		.short	-12099
 4649 016e 34C1     		.short	-16076
 4650 0170 C339     		.short	14787
 4651 0172 4A28     		.short	10314
 4652 0174 D11A     		.short	6865
 4653 0176 580B     		.short	2904
 4654 0178 E77F     		.short	32743
 4655 017a 6E6E     		.short	28270
 4656 017c F55C     		.short	23797
 4657 017e 7C4D     		.short	19836
 4658 0180 0CC6     		.short	-14836
 4659 0182 85D7     		.short	-10363
 4660 0184 1EE5     		.short	-6882
 4661 0186 97F4     		.short	-2921
 4662 0188 2880     		.short	-32728
 4663 018a A191     		.short	-28255
 4664 018c 3AA3     		.short	-23750
 4665 018e B3B2     		.short	-19789
 4666 0190 444A     		.short	19012
 4667 0192 CD5B     		.short	23501
 4668 0194 5669     		.short	26966
 4669 0196 DF78     		.short	30943
 4670 0198 600C     		.short	3168
 4671 019a E91D     		.short	7657
 4672 019c 722F     		.short	12146
 4673 019e FB3E     		.short	16123
 4674 01a0 8DD6     		.short	-10611
 4675 01a2 04C7     		.short	-14588
 4676 01a4 9FF5     		.short	-2657
 4677 01a6 16E4     		.short	-7146
 4678 01a8 A990     		.short	-28503
 4679 01aa 2081     		.short	-32480
 4680 01ac BBB3     		.short	-19525
 4681 01ae 32A2     		.short	-24014
 4682 01b0 C55A     		.short	23237
 4683 01b2 4C4B     		.short	19276
 4684 01b4 D779     		.short	31191
 4685 01b6 5E68     		.short	26718
 4686 01b8 E11C     		.short	7393
 4687 01ba 680D     		.short	3432
 4688 01bc F33F     		.short	16371
 4689 01be 7A2E     		.short	11898
 4690 01c0 0EE7     		.short	-6386
 4691 01c2 87F6     		.short	-2425
 4692 01c4 1CC4     		.short	-15332
 4693 01c6 95D5     		.short	-10859
 4694 01c8 2AA1     		.short	-24278
 4695 01ca A3B0     		.short	-20317
 4696 01cc 3882     		.short	-32200
ARM GAS  C:\Users\strag\AppData\Local\Temp\cc3UPhIa.s 			page 129


 4697 01ce B193     		.short	-27727
 4698 01d0 466B     		.short	27462
 4699 01d2 CF7A     		.short	31439
 4700 01d4 5448     		.short	18516
 4701 01d6 DD59     		.short	23005
 4702 01d8 622D     		.short	11618
 4703 01da EB3C     		.short	15595
 4704 01dc 700E     		.short	3696
 4705 01de F91F     		.short	8185
 4706 01e0 8FF7     		.short	-2161
 4707 01e2 06E6     		.short	-6650
 4708 01e4 9DD4     		.short	-11107
 4709 01e6 14C5     		.short	-15084
 4710 01e8 ABB1     		.short	-20053
 4711 01ea 22A0     		.short	-24542
 4712 01ec B992     		.short	-27975
 4713 01ee 3083     		.short	-31952
 4714 01f0 C77B     		.short	31687
 4715 01f2 4E6A     		.short	27214
 4716 01f4 D558     		.short	22741
 4717 01f6 5C49     		.short	18780
 4718 01f8 E33D     		.short	15843
 4719 01fa 6A2C     		.short	11370
 4720 01fc F11E     		.short	7921
 4721 01fe 780F     		.short	3960
 4722              		.text
 4723              	.Letext0:
 4724              		.file 2 "d:\\gcc-arm-none-eabi-5_4-2016q3-20160926-win32\\arm-none-eabi\\include\\machine\\_defaul
 4725              		.file 3 "d:\\gcc-arm-none-eabi-5_4-2016q3-20160926-win32\\arm-none-eabi\\include\\sys\\_stdint.h"
 4726              		.file 4 "../user/include/BaseDef.h"
 4727              		.file 5 "../user/include/DLT698_45.h"
 4728              		.file 6 "../user/include/DLT698.h"
 4729              		.file 7 "<built-in>"
 4730              		.file 8 "../cmsis/include/core_cm4.h"
 4731              		.file 9 "../user/include/DLT645.h"
ARM GAS  C:\Users\strag\AppData\Local\Temp\cc3UPhIa.s 			page 130


DEFINED SYMBOLS
                            *ABS*:00000000 DLT698.c
C:\Users\strag\AppData\Local\Temp\cc3UPhIa.s:22     .text.dwDlt698MsLen:00000000 $t
C:\Users\strag\AppData\Local\Temp\cc3UPhIa.s:26     .text.dwDlt698MsLen:00000000 dwDlt698MsLen
C:\Users\strag\AppData\Local\Temp\cc3UPhIa.s:692    .text.dwDlt698DataLen:00000000 dwDlt698DataLen
C:\Users\strag\AppData\Local\Temp\cc3UPhIa.s:688    .text.dwDlt698DataLen:00000000 $t
C:\Users\strag\AppData\Local\Temp\cc3UPhIa.s:720    .text.dwDlt698DataLen:00000014 $d
C:\Users\strag\AppData\Local\Temp\cc3UPhIa.s:817    .text.dwDlt698DataLen:000000d6 $t
C:\Users\strag\AppData\Local\Temp\cc3UPhIa.s:2751   .text.dwDlt698RSDLen:00000000 dwDlt698RSDLen
C:\Users\strag\AppData\Local\Temp\cc3UPhIa.s:2747   .text.dwDlt698RSDLen:00000000 $t
C:\Users\strag\AppData\Local\Temp\cc3UPhIa.s:3172   .text.pppfcs16:00000000 $t
C:\Users\strag\AppData\Local\Temp\cc3UPhIa.s:3177   .text.pppfcs16:00000000 pppfcs16
C:\Users\strag\AppData\Local\Temp\cc3UPhIa.s:3226   .text.pppfcs16:00000028 $d
C:\Users\strag\AppData\Local\Temp\cc3UPhIa.s:3231   .text.dwReCalculateFCS:00000000 $t
C:\Users\strag\AppData\Local\Temp\cc3UPhIa.s:3236   .text.dwReCalculateFCS:00000000 dwReCalculateFCS
C:\Users\strag\AppData\Local\Temp\cc3UPhIa.s:3281   .text.dwUnpackSecurity:00000000 $t
C:\Users\strag\AppData\Local\Temp\cc3UPhIa.s:3286   .text.dwUnpackSecurity:00000000 dwUnpackSecurity
C:\Users\strag\AppData\Local\Temp\cc3UPhIa.s:3409   .text.dwGet698Apdu:00000000 $t
C:\Users\strag\AppData\Local\Temp\cc3UPhIa.s:3414   .text.dwGet698Apdu:00000000 dwGet698Apdu
C:\Users\strag\AppData\Local\Temp\cc3UPhIa.s:3447   .text.dwGetApdu:00000000 $t
C:\Users\strag\AppData\Local\Temp\cc3UPhIa.s:3452   .text.dwGetApdu:00000000 dwGetApdu
C:\Users\strag\AppData\Local\Temp\cc3UPhIa.s:3563   .text.dwDlt698DataLenByOAD:00000000 $t
C:\Users\strag\AppData\Local\Temp\cc3UPhIa.s:3568   .text.dwDlt698DataLenByOAD:00000000 dwDlt698DataLenByOAD
C:\Users\strag\AppData\Local\Temp\cc3UPhIa.s:3600   .text.dwGetOad:00000000 $t
C:\Users\strag\AppData\Local\Temp\cc3UPhIa.s:3605   .text.dwGetOad:00000000 dwGetOad
C:\Users\strag\AppData\Local\Temp\cc3UPhIa.s:3635   .text.dwGetResponseNormal:00000000 $t
C:\Users\strag\AppData\Local\Temp\cc3UPhIa.s:3639   .text.dwGetResponseNormal:00000000 dwGetResponseNormal
C:\Users\strag\AppData\Local\Temp\cc3UPhIa.s:3814   .text.eDataClass:00000000 $t
C:\Users\strag\AppData\Local\Temp\cc3UPhIa.s:3819   .text.eDataClass:00000000 eDataClass
C:\Users\strag\AppData\Local\Temp\cc3UPhIa.s:3879   .text.dwGetResponseRecord:00000000 $t
C:\Users\strag\AppData\Local\Temp\cc3UPhIa.s:3883   .text.dwGetResponseRecord:00000000 dwGetResponseRecord
C:\Users\strag\AppData\Local\Temp\cc3UPhIa.s:4154   .text.dwAPduAnalyze:00000000 $t
C:\Users\strag\AppData\Local\Temp\cc3UPhIa.s:4159   .text.dwAPduAnalyze:00000000 dwAPduAnalyze
C:\Users\strag\AppData\Local\Temp\cc3UPhIa.s:4186   .text.dwAPduAnalyze:00000016 $d
C:\Users\strag\AppData\Local\Temp\cc3UPhIa.s:4190   .text.dwAPduAnalyze:0000001a $t
C:\Users\strag\AppData\Local\Temp\cc3UPhIa.s:4221   .text.v698VoltageModify:00000000 $t
C:\Users\strag\AppData\Local\Temp\cc3UPhIa.s:4226   .text.v698VoltageModify:00000000 v698VoltageModify
C:\Users\strag\AppData\Local\Temp\cc3UPhIa.s:4309   .text.v698VoltageModify:00000048 $d
C:\Users\strag\AppData\Local\Temp\cc3UPhIa.s:4315   .text.v698EnergyModify:00000000 $t
C:\Users\strag\AppData\Local\Temp\cc3UPhIa.s:4320   .text.v698EnergyModify:00000000 v698EnergyModify
C:\Users\strag\AppData\Local\Temp\cc3UPhIa.s:4455   .text.v698EnergyModify:000000ac $d
C:\Users\strag\AppData\Local\Temp\cc3UPhIa.s:4465   .rodata.fcstab:00000000 fcstab
C:\Users\strag\AppData\Local\Temp\cc3UPhIa.s:4461   .rodata.fcstab:00000000 $d
                     .debug_frame:00000010 $d

UNDEFINED SYMBOLS
memset
Voltage_Modifier_Method
Voltage_MAX
Voltage_MIN
vNow_Frozen_Modify_Mothod
