ARM GAS  C:\Users\strag\AppData\Local\Temp\cciFeIjZ.s 			page 1


   1              		.syntax unified
   2              		.cpu cortex-m4
   3              		.eabi_attribute 27, 1
   4              		.eabi_attribute 28, 1
   5              		.fpu fpv4-sp-d16
   6              		.eabi_attribute 20, 1
   7              		.eabi_attribute 21, 1
   8              		.eabi_attribute 23, 3
   9              		.eabi_attribute 24, 1
  10              		.eabi_attribute 25, 1
  11              		.eabi_attribute 26, 1
  12              		.eabi_attribute 30, 1
  13              		.eabi_attribute 34, 1
  14              		.eabi_attribute 18, 4
  15              		.thumb
  16              		.syntax unified
  17              		.file	"GPIO.c"
  18              		.text
  19              	.Ltext0:
  20              		.cfi_sections	.debug_frame
  21              		.section	.text.vGPIO_Init,"ax",%progbits
  22              		.align	2
  23              		.global	vGPIO_Init
  24              		.thumb
  25              		.thumb_func
  27              	vGPIO_Init:
  28              	.LFB111:
  29              		.file 1 "../user/source/GPIO.c"
   1:../user/source/GPIO.c **** 
   2:../user/source/GPIO.c **** #include "GPIO.h"
   3:../user/source/GPIO.c **** #include "Time.h"
   4:../user/source/GPIO.c **** 
   5:../user/source/GPIO.c **** //bool LED_BLINK;
   6:../user/source/GPIO.c **** /**
   7:../user/source/GPIO.c ****   * @brief GPIO初始化函数；
   8:../user/source/GPIO.c ****   * @param  none
   9:../user/source/GPIO.c ****   * @retval none
  10:../user/source/GPIO.c **** 	* B6和B7配置为串口1；B8和B9配置为串口3；A1看门狗输出；A0配置为喂狗；PC13配置为运行灯；
  11:../user/source/GPIO.c ****   */
  12:../user/source/GPIO.c **** void vGPIO_Init(void)
  13:../user/source/GPIO.c **** {
  30              		.loc 1 13 0
  31              		.cfi_startproc
  32              		@ args = 0, pretend = 0, frame = 8
  33              		@ frame_needed = 0, uses_anonymous_args = 0
  34 0000 2DE9F043 		push	{r4, r5, r6, r7, r8, r9, lr}
  35              	.LCFI0:
  36              		.cfi_def_cfa_offset 28
  37              		.cfi_offset 4, -28
  38              		.cfi_offset 5, -24
  39              		.cfi_offset 6, -20
  40              		.cfi_offset 7, -16
  41              		.cfi_offset 8, -12
  42              		.cfi_offset 9, -8
  43              		.cfi_offset 14, -4
  44 0004 83B0     		sub	sp, sp, #12
  45              	.LCFI1:
ARM GAS  C:\Users\strag\AppData\Local\Temp\cciFeIjZ.s 			page 2


  46              		.cfi_def_cfa_offset 40
  14:../user/source/GPIO.c ****     /*PB6 PB7作为串口*/
  15:../user/source/GPIO.c ****     GPIO_InitTypeDef GPIO_Initstruc;
  16:../user/source/GPIO.c ****     RCC_AHBPeriphClockCmd(RCC_AHBPeriph_GPIOB, ENABLE);
  47              		.loc 1 16 0
  48 0006 0121     		movs	r1, #1
  49 0008 4FF48020 		mov	r0, #262144
  50 000c FFF7FEFF 		bl	RCC_AHBPeriphClockCmd
  51              	.LVL0:
  17:../user/source/GPIO.c ****     GPIO_PinAFConfig(GPIOB, GPIO_PinSource6, GPIO_AF_7);
  52              		.loc 1 17 0
  53 0010 DFF82881 		ldr	r8, .L3
  54 0014 0722     		movs	r2, #7
  55 0016 0621     		movs	r1, #6
  56 0018 4046     		mov	r0, r8
  57 001a FFF7FEFF 		bl	GPIO_PinAFConfig
  58              	.LVL1:
  18:../user/source/GPIO.c ****     GPIO_PinAFConfig(GPIOB, GPIO_PinSource7, GPIO_AF_7);
  59              		.loc 1 18 0
  60 001e 0722     		movs	r2, #7
  61 0020 1146     		mov	r1, r2
  62 0022 4046     		mov	r0, r8
  63 0024 FFF7FEFF 		bl	GPIO_PinAFConfig
  64              	.LVL2:
  19:../user/source/GPIO.c ****     GPIO_Initstruc.GPIO_Mode = GPIO_Mode_AF;
  65              		.loc 1 19 0
  66 0028 0224     		movs	r4, #2
  67 002a 8DF80440 		strb	r4, [sp, #4]
  20:../user/source/GPIO.c ****     GPIO_Initstruc.GPIO_OType = GPIO_OType_PP;
  68              		.loc 1 20 0
  69 002e 0027     		movs	r7, #0
  70 0030 8DF80670 		strb	r7, [sp, #6]
  21:../user/source/GPIO.c ****     GPIO_Initstruc.GPIO_PuPd = GPIO_PuPd_UP;
  71              		.loc 1 21 0
  72 0034 0125     		movs	r5, #1
  73 0036 8DF80750 		strb	r5, [sp, #7]
  22:../user/source/GPIO.c ****     GPIO_Initstruc.GPIO_Speed = GPIO_Speed_2MHz;
  74              		.loc 1 22 0
  75 003a 8DF80540 		strb	r4, [sp, #5]
  23:../user/source/GPIO.c ****     GPIO_Initstruc.GPIO_Pin = GPIO_Pin_6 | GPIO_Pin_7;
  76              		.loc 1 23 0
  77 003e 02AE     		add	r6, sp, #8
  78 0040 C023     		movs	r3, #192
  79 0042 46F8083D 		str	r3, [r6, #-8]!
  24:../user/source/GPIO.c ****     GPIO_Init(GPIOB, &GPIO_Initstruc);
  80              		.loc 1 24 0
  81 0046 3146     		mov	r1, r6
  82 0048 4046     		mov	r0, r8
  83 004a FFF7FEFF 		bl	GPIO_Init
  84              	.LVL3:
  25:../user/source/GPIO.c ****     /*PB8 PB9作为串口*/
  26:../user/source/GPIO.c ****     GPIO_PinAFConfig(GPIOB, GPIO_PinSource8, GPIO_AF_7);
  85              		.loc 1 26 0
  86 004e 0722     		movs	r2, #7
  87 0050 0821     		movs	r1, #8
  88 0052 4046     		mov	r0, r8
  89 0054 FFF7FEFF 		bl	GPIO_PinAFConfig
ARM GAS  C:\Users\strag\AppData\Local\Temp\cciFeIjZ.s 			page 3


  90              	.LVL4:
  27:../user/source/GPIO.c ****     GPIO_PinAFConfig(GPIOB, GPIO_PinSource9, GPIO_AF_7);
  91              		.loc 1 27 0
  92 0058 0722     		movs	r2, #7
  93 005a 0921     		movs	r1, #9
  94 005c 4046     		mov	r0, r8
  95 005e FFF7FEFF 		bl	GPIO_PinAFConfig
  96              	.LVL5:
  28:../user/source/GPIO.c ****     GPIO_Initstruc.GPIO_OType = GPIO_OType_PP;
  97              		.loc 1 28 0
  98 0062 8DF80670 		strb	r7, [sp, #6]
  29:../user/source/GPIO.c ****     GPIO_Initstruc.GPIO_Pin = GPIO_Pin_8 | GPIO_Pin_9;
  99              		.loc 1 29 0
 100 0066 4FF44073 		mov	r3, #768
 101 006a 0093     		str	r3, [sp]
  30:../user/source/GPIO.c ****     GPIO_Init(GPIOB, &GPIO_Initstruc);
 102              		.loc 1 30 0
 103 006c 3146     		mov	r1, r6
 104 006e 4046     		mov	r0, r8
 105 0070 FFF7FEFF 		bl	GPIO_Init
 106              	.LVL6:
  31:../user/source/GPIO.c ****     /*PA0 作为看门狗输出*/
  32:../user/source/GPIO.c ****     RCC_AHBPeriphClockCmd(RCC_AHBPeriph_GPIOA, ENABLE);
 107              		.loc 1 32 0
 108 0074 2946     		mov	r1, r5
 109 0076 4FF40030 		mov	r0, #131072
 110 007a FFF7FEFF 		bl	RCC_AHBPeriphClockCmd
 111              	.LVL7:
  33:../user/source/GPIO.c ****     GPIO_Initstruc.GPIO_Pin = GPIO_Pin_0;
 112              		.loc 1 33 0
 113 007e 0095     		str	r5, [sp]
  34:../user/source/GPIO.c ****     GPIO_Initstruc.GPIO_Mode = GPIO_Mode_OUT;
 114              		.loc 1 34 0
 115 0080 8DF80450 		strb	r5, [sp, #4]
  35:../user/source/GPIO.c ****     GPIO_Initstruc.GPIO_OType = GPIO_OType_OD; //开漏
 116              		.loc 1 35 0
 117 0084 8DF80650 		strb	r5, [sp, #6]
  36:../user/source/GPIO.c ****     GPIO_Initstruc.GPIO_Speed = GPIO_Speed_2MHz;
 118              		.loc 1 36 0
 119 0088 8DF80540 		strb	r4, [sp, #5]
  37:../user/source/GPIO.c ****     GPIO_Initstruc.GPIO_PuPd = GPIO_PuPd_NOPULL;
 120              		.loc 1 37 0
 121 008c 8DF80770 		strb	r7, [sp, #7]
  38:../user/source/GPIO.c ****     GPIO_Init(GPIOA, &GPIO_Initstruc);
 122              		.loc 1 38 0
 123 0090 3146     		mov	r1, r6
 124 0092 4FF09040 		mov	r0, #1207959552
 125 0096 FFF7FEFF 		bl	GPIO_Init
 126              	.LVL8:
  39:../user/source/GPIO.c ****     /*PC13 作为指示灯，默认不亮*/
  40:../user/source/GPIO.c ****     RCC_AHBPeriphClockCmd(RCC_AHBPeriph_GPIOC, ENABLE);
 127              		.loc 1 40 0
 128 009a 2946     		mov	r1, r5
 129 009c 4FF40020 		mov	r0, #524288
 130 00a0 FFF7FEFF 		bl	RCC_AHBPeriphClockCmd
 131              	.LVL9:
  41:../user/source/GPIO.c ****     GPIO_Initstruc.GPIO_Pin = GPIO_Pin_13;
ARM GAS  C:\Users\strag\AppData\Local\Temp\cciFeIjZ.s 			page 4


 132              		.loc 1 41 0
 133 00a4 4FF40059 		mov	r9, #8192
 134 00a8 CDF80090 		str	r9, [sp]
  42:../user/source/GPIO.c ****     GPIO_Initstruc.GPIO_Mode = GPIO_Mode_OUT;
 135              		.loc 1 42 0
 136 00ac 8DF80450 		strb	r5, [sp, #4]
  43:../user/source/GPIO.c ****     GPIO_Initstruc.GPIO_OType = GPIO_OType_PP; //开漏
 137              		.loc 1 43 0
 138 00b0 8DF80670 		strb	r7, [sp, #6]
  44:../user/source/GPIO.c ****     GPIO_Initstruc.GPIO_Speed = GPIO_Speed_2MHz;
 139              		.loc 1 44 0
 140 00b4 8DF80540 		strb	r4, [sp, #5]
  45:../user/source/GPIO.c ****     GPIO_Initstruc.GPIO_PuPd = GPIO_PuPd_NOPULL;
  46:../user/source/GPIO.c ****     GPIO_Initstruc.GPIO_PuPd = GPIO_PuPd_DOWN; //配置为下拉
 141              		.loc 1 46 0
 142 00b8 8DF80740 		strb	r4, [sp, #7]
  47:../user/source/GPIO.c ****     GPIO_Init(GPIOC, &GPIO_Initstruc);
 143              		.loc 1 47 0
 144 00bc 08F58068 		add	r8, r8, #1024
 145 00c0 3146     		mov	r1, r6
 146 00c2 4046     		mov	r0, r8
 147 00c4 FFF7FEFF 		bl	GPIO_Init
 148              	.LVL10:
  48:../user/source/GPIO.c ****     GPIO_WriteBit(GPIOC, GPIO_Pin_13, Bit_SET); //输出高电平，LED灭
 149              		.loc 1 48 0
 150 00c8 2A46     		mov	r2, r5
 151 00ca 4946     		mov	r1, r9
 152 00cc 4046     		mov	r0, r8
 153 00ce FFF7FEFF 		bl	GPIO_WriteBit
 154              	.LVL11:
  49:../user/source/GPIO.c ****     /*PA1_配置为PWM输出*/
  50:../user/source/GPIO.c ****     GPIO_Initstruc.GPIO_Pin = GPIO_Pin_1;
 155              		.loc 1 50 0
 156 00d2 0094     		str	r4, [sp]
  51:../user/source/GPIO.c ****     GPIO_Initstruc.GPIO_Mode = GPIO_Mode_AF;
 157              		.loc 1 51 0
 158 00d4 8DF80440 		strb	r4, [sp, #4]
  52:../user/source/GPIO.c ****     GPIO_Initstruc.GPIO_OType = GPIO_OType_PP;
 159              		.loc 1 52 0
 160 00d8 8DF80670 		strb	r7, [sp, #6]
  53:../user/source/GPIO.c ****     GPIO_Initstruc.GPIO_Speed = GPIO_Speed_50MHz;
 161              		.loc 1 53 0
 162 00dc 4FF00308 		mov	r8, #3
 163 00e0 8DF80580 		strb	r8, [sp, #5]
  54:../user/source/GPIO.c ****     GPIO_Initstruc.GPIO_PuPd = GPIO_PuPd_UP;
 164              		.loc 1 54 0
 165 00e4 8DF80750 		strb	r5, [sp, #7]
  55:../user/source/GPIO.c ****     GPIO_Init(GPIOA, &GPIO_Initstruc);
 166              		.loc 1 55 0
 167 00e8 3146     		mov	r1, r6
 168 00ea 4FF09040 		mov	r0, #1207959552
 169 00ee FFF7FEFF 		bl	GPIO_Init
 170              	.LVL12:
  56:../user/source/GPIO.c ****     GPIO_PinAFConfig(GPIOA, GPIO_PinSource1, GPIO_AF_2); //复用功能:TIM5
 171              		.loc 1 56 0
 172 00f2 2246     		mov	r2, r4
 173 00f4 2946     		mov	r1, r5
ARM GAS  C:\Users\strag\AppData\Local\Temp\cciFeIjZ.s 			page 5


 174 00f6 4FF09040 		mov	r0, #1207959552
 175 00fa FFF7FEFF 		bl	GPIO_PinAFConfig
 176              	.LVL13:
  57:../user/source/GPIO.c ****     /*PA2 PA3作为串口2发、收*/
  58:../user/source/GPIO.c ****     GPIO_PinAFConfig(GPIOA, GPIO_PinSource2, GPIO_AF_7);
 177              		.loc 1 58 0
 178 00fe 0722     		movs	r2, #7
 179 0100 2146     		mov	r1, r4
 180 0102 4FF09040 		mov	r0, #1207959552
 181 0106 FFF7FEFF 		bl	GPIO_PinAFConfig
 182              	.LVL14:
  59:../user/source/GPIO.c ****     GPIO_PinAFConfig(GPIOA, GPIO_PinSource3, GPIO_AF_7);
 183              		.loc 1 59 0
 184 010a 0722     		movs	r2, #7
 185 010c 4146     		mov	r1, r8
 186 010e 4FF09040 		mov	r0, #1207959552
 187 0112 FFF7FEFF 		bl	GPIO_PinAFConfig
 188              	.LVL15:
  60:../user/source/GPIO.c ****     GPIO_Initstruc.GPIO_Mode = GPIO_Mode_AF;
 189              		.loc 1 60 0
 190 0116 8DF80440 		strb	r4, [sp, #4]
  61:../user/source/GPIO.c ****     GPIO_Initstruc.GPIO_OType = GPIO_OType_PP;
 191              		.loc 1 61 0
 192 011a 8DF80670 		strb	r7, [sp, #6]
  62:../user/source/GPIO.c ****     GPIO_Initstruc.GPIO_PuPd = GPIO_PuPd_UP;
 193              		.loc 1 62 0
 194 011e 8DF80750 		strb	r5, [sp, #7]
  63:../user/source/GPIO.c ****     GPIO_Initstruc.GPIO_Speed = GPIO_Speed_2MHz;
 195              		.loc 1 63 0
 196 0122 8DF80540 		strb	r4, [sp, #5]
  64:../user/source/GPIO.c ****     GPIO_Initstruc.GPIO_Pin = GPIO_Pin_2 | GPIO_Pin_3;
 197              		.loc 1 64 0
 198 0126 0C23     		movs	r3, #12
 199 0128 0093     		str	r3, [sp]
  65:../user/source/GPIO.c ****     GPIO_Init(GPIOA, &GPIO_Initstruc);
 200              		.loc 1 65 0
 201 012a 3146     		mov	r1, r6
 202 012c 4FF09040 		mov	r0, #1207959552
 203 0130 FFF7FEFF 		bl	GPIO_Init
 204              	.LVL16:
  66:../user/source/GPIO.c **** }
 205              		.loc 1 66 0
 206 0134 03B0     		add	sp, sp, #12
 207              	.LCFI2:
 208              		.cfi_def_cfa_offset 28
 209              		@ sp needed
 210 0136 BDE8F083 		pop	{r4, r5, r6, r7, r8, r9, pc}
 211              	.L4:
 212 013a 00BF     		.align	2
 213              	.L3:
 214 013c 00040048 		.word	1207960576
 215              		.cfi_endproc
 216              	.LFE111:
 218              		.section	.text.vExti_Init,"ax",%progbits
 219              		.align	2
 220              		.global	vExti_Init
 221              		.thumb
ARM GAS  C:\Users\strag\AppData\Local\Temp\cciFeIjZ.s 			page 6


 222              		.thumb_func
 224              	vExti_Init:
 225              	.LFB112:
  67:../user/source/GPIO.c **** 
  68:../user/source/GPIO.c **** /********************************************************************
  69:../user/source/GPIO.c **** * 功    能：外部中断初始化
  70:../user/source/GPIO.c **** * 输    入：void
  71:../user/source/GPIO.c **** * 输    出：void
  72:../user/source/GPIO.c **** * 说    名：PB7串口1输入
  73:../user/source/GPIO.c **** * 编 写 人：stragen
  74:../user/source/GPIO.c **** * 编写日期：2018年9月4日15:47:13
  75:../user/source/GPIO.c **** **********************************************************************/
  76:../user/source/GPIO.c **** void vExti_Init(void)
  77:../user/source/GPIO.c **** {
 226              		.loc 1 77 0
 227              		.cfi_startproc
 228              		@ args = 0, pretend = 0, frame = 24
 229              		@ frame_needed = 0, uses_anonymous_args = 0
 230 0000 30B5     		push	{r4, r5, lr}
 231              	.LCFI3:
 232              		.cfi_def_cfa_offset 12
 233              		.cfi_offset 4, -12
 234              		.cfi_offset 5, -8
 235              		.cfi_offset 14, -4
 236 0002 87B0     		sub	sp, sp, #28
 237              	.LCFI4:
 238              		.cfi_def_cfa_offset 40
  78:../user/source/GPIO.c ****     GPIO_InitTypeDef GPIOInitStruct;
  79:../user/source/GPIO.c ****     EXTI_InitTypeDef ExtiInitStruct;
  80:../user/source/GPIO.c ****     NVIC_InitTypeDef NvicInitStruct;
  81:../user/source/GPIO.c **** 
  82:../user/source/GPIO.c ****     /*配置GPIO引脚*/
  83:../user/source/GPIO.c ****     RCC_AHBPeriphClockCmd(RCC_AHBPeriph_GPIOB, ENABLE);
 239              		.loc 1 83 0
 240 0004 0121     		movs	r1, #1
 241 0006 4FF48020 		mov	r0, #262144
 242 000a FFF7FEFF 		bl	RCC_AHBPeriphClockCmd
 243              	.LVL17:
  84:../user/source/GPIO.c ****     GPIOInitStruct.GPIO_Pin = GPIO_Pin_7;
 244              		.loc 1 84 0
 245 000e 8025     		movs	r5, #128
 246 0010 0495     		str	r5, [sp, #16]
  85:../user/source/GPIO.c ****     GPIOInitStruct.GPIO_Mode = GPIO_Mode_IN;
 247              		.loc 1 85 0
 248 0012 0024     		movs	r4, #0
 249 0014 8DF81440 		strb	r4, [sp, #20]
  86:../user/source/GPIO.c ****     //GPIOInitStruct.GPIO_OType = GPIO_OType_PP;
  87:../user/source/GPIO.c ****     GPIOInitStruct.GPIO_PuPd = GPIO_PuPd_NOPULL;
 250              		.loc 1 87 0
 251 0018 8DF81740 		strb	r4, [sp, #23]
  88:../user/source/GPIO.c ****     GPIOInitStruct.GPIO_Speed = GPIO_Speed_2MHz;
 252              		.loc 1 88 0
 253 001c 0223     		movs	r3, #2
 254 001e 8DF81530 		strb	r3, [sp, #21]
  89:../user/source/GPIO.c ****     GPIO_Init(GPIOB, &GPIOInitStruct);
 255              		.loc 1 89 0
 256 0022 04A9     		add	r1, sp, #16
ARM GAS  C:\Users\strag\AppData\Local\Temp\cciFeIjZ.s 			page 7


 257 0024 1248     		ldr	r0, .L7
 258 0026 FFF7FEFF 		bl	GPIO_Init
 259              	.LVL18:
  90:../user/source/GPIO.c **** 
  91:../user/source/GPIO.c ****     /*配置外部中断模式*/
  92:../user/source/GPIO.c ****     RCC_APB2PeriphClockCmd(RCC_APB2Periph_SYSCFG, ENABLE);
 260              		.loc 1 92 0
 261 002a 0121     		movs	r1, #1
 262 002c 0846     		mov	r0, r1
 263 002e FFF7FEFF 		bl	RCC_APB2PeriphClockCmd
 264              	.LVL19:
  93:../user/source/GPIO.c ****     SYSCFG_EXTILineConfig(EXTI_PortSourceGPIOB, EXTI_PinSource7);
 265              		.loc 1 93 0
 266 0032 0721     		movs	r1, #7
 267 0034 0120     		movs	r0, #1
 268 0036 FFF7FEFF 		bl	SYSCFG_EXTILineConfig
 269              	.LVL20:
  94:../user/source/GPIO.c ****     ExtiInitStruct.EXTI_Line = EXTI_Line7;
 270              		.loc 1 94 0
 271 003a 0295     		str	r5, [sp, #8]
  95:../user/source/GPIO.c ****     ExtiInitStruct.EXTI_Mode = EXTI_Mode_Interrupt;
 272              		.loc 1 95 0
 273 003c 8DF80C40 		strb	r4, [sp, #12]
  96:../user/source/GPIO.c ****     ExtiInitStruct.EXTI_Trigger = EXTI_Trigger_Rising_Falling;
 274              		.loc 1 96 0
 275 0040 1023     		movs	r3, #16
 276 0042 8DF80D30 		strb	r3, [sp, #13]
  97:../user/source/GPIO.c ****     ExtiInitStruct.EXTI_LineCmd = ENABLE;
 277              		.loc 1 97 0
 278 0046 0124     		movs	r4, #1
 279 0048 8DF80E40 		strb	r4, [sp, #14]
  98:../user/source/GPIO.c ****     EXTI_Init(&ExtiInitStruct);
 280              		.loc 1 98 0
 281 004c 02A8     		add	r0, sp, #8
 282 004e FFF7FEFF 		bl	EXTI_Init
 283              	.LVL21:
  99:../user/source/GPIO.c **** 
 100:../user/source/GPIO.c ****     /*配置中断优先级*/
 101:../user/source/GPIO.c ****     NvicInitStruct.NVIC_IRQChannel = EXTI9_5_IRQn;
 284              		.loc 1 101 0
 285 0052 1723     		movs	r3, #23
 286 0054 8DF80430 		strb	r3, [sp, #4]
 102:../user/source/GPIO.c ****     NvicInitStruct.NVIC_IRQChannelPreemptionPriority = 1;
 287              		.loc 1 102 0
 288 0058 8DF80540 		strb	r4, [sp, #5]
 103:../user/source/GPIO.c ****     NvicInitStruct.NVIC_IRQChannelSubPriority = 1;
 289              		.loc 1 103 0
 290 005c 8DF80640 		strb	r4, [sp, #6]
 104:../user/source/GPIO.c ****     NvicInitStruct.NVIC_IRQChannelCmd = ENABLE;
 291              		.loc 1 104 0
 292 0060 8DF80740 		strb	r4, [sp, #7]
 105:../user/source/GPIO.c ****     NVIC_Init(&NvicInitStruct);
 293              		.loc 1 105 0
 294 0064 01A8     		add	r0, sp, #4
 295 0066 FFF7FEFF 		bl	NVIC_Init
 296              	.LVL22:
 106:../user/source/GPIO.c **** }
ARM GAS  C:\Users\strag\AppData\Local\Temp\cciFeIjZ.s 			page 8


 297              		.loc 1 106 0
 298 006a 07B0     		add	sp, sp, #28
 299              	.LCFI5:
 300              		.cfi_def_cfa_offset 12
 301              		@ sp needed
 302 006c 30BD     		pop	{r4, r5, pc}
 303              	.L8:
 304 006e 00BF     		.align	2
 305              	.L7:
 306 0070 00040048 		.word	1207960576
 307              		.cfi_endproc
 308              	.LFE112:
 310              		.section	.text.vFeedExtWatchDog,"ax",%progbits
 311              		.align	2
 312              		.global	vFeedExtWatchDog
 313              		.thumb
 314              		.thumb_func
 316              	vFeedExtWatchDog:
 317              	.LFB113:
 107:../user/source/GPIO.c **** /********************************************************************
 108:../user/source/GPIO.c **** * 功    能：喂狗函数
 109:../user/source/GPIO.c **** * 输    入：void
 110:../user/source/GPIO.c **** * 输    出：	void
 111:../user/source/GPIO.c **** * 编 写 人：王君龙
 112:../user/source/GPIO.c **** * 编写日期：2017.3.21
 113:../user/source/GPIO.c **** **********************************************************************/
 114:../user/source/GPIO.c **** void vFeedExtWatchDog(void)
 115:../user/source/GPIO.c **** {
 318              		.loc 1 115 0
 319              		.cfi_startproc
 320              		@ args = 0, pretend = 0, frame = 0
 321              		@ frame_needed = 0, uses_anonymous_args = 0
 322 0000 08B5     		push	{r3, lr}
 323              	.LCFI6:
 324              		.cfi_def_cfa_offset 8
 325              		.cfi_offset 3, -8
 326              		.cfi_offset 14, -4
 116:../user/source/GPIO.c ****     if (GPIO_ReadInputDataBit(GPIOA, GPIO_Pin_0))
 327              		.loc 1 116 0
 328 0002 0121     		movs	r1, #1
 329 0004 4FF09040 		mov	r0, #1207959552
 330 0008 FFF7FEFF 		bl	GPIO_ReadInputDataBit
 331              	.LVL23:
 332 000c 30B1     		cbz	r0, .L10
 117:../user/source/GPIO.c ****     {
 118:../user/source/GPIO.c ****         GPIO_WriteBit(GPIOA, GPIO_Pin_0, Bit_RESET);
 333              		.loc 1 118 0
 334 000e 0022     		movs	r2, #0
 335 0010 0121     		movs	r1, #1
 336 0012 4FF09040 		mov	r0, #1207959552
 337 0016 FFF7FEFF 		bl	GPIO_WriteBit
 338              	.LVL24:
 339 001a 08BD     		pop	{r3, pc}
 340              	.L10:
 119:../user/source/GPIO.c ****     }
 120:../user/source/GPIO.c ****     else
 121:../user/source/GPIO.c ****     {
ARM GAS  C:\Users\strag\AppData\Local\Temp\cciFeIjZ.s 			page 9


 122:../user/source/GPIO.c ****         GPIO_WriteBit(GPIOA, GPIO_Pin_0, Bit_SET);
 341              		.loc 1 122 0
 342 001c 0122     		movs	r2, #1
 343 001e 1146     		mov	r1, r2
 344 0020 4FF09040 		mov	r0, #1207959552
 345 0024 FFF7FEFF 		bl	GPIO_WriteBit
 346              	.LVL25:
 347 0028 08BD     		pop	{r3, pc}
 348              		.cfi_endproc
 349              	.LFE113:
 351 002a 00BF     		.section	.text.vLed_Light,"ax",%progbits
 352              		.align	2
 353              		.global	vLed_Light
 354              		.thumb
 355              		.thumb_func
 357              	vLed_Light:
 358              	.LFB114:
 123:../user/source/GPIO.c ****     }
 124:../user/source/GPIO.c **** }
 125:../user/source/GPIO.c **** /********************************************************************
 126:../user/source/GPIO.c **** * 功    能：点亮指示灯
 127:../user/source/GPIO.c **** * 输    入：void
 128:../user/source/GPIO.c **** * 输    出：	void
 129:../user/source/GPIO.c **** * 编 写 人：stragen
 130:../user/source/GPIO.c **** * 编写日期：2017.3.21
 131:../user/source/GPIO.c **** **********************************************************************/
 132:../user/source/GPIO.c **** void vLed_Light(void)
 133:../user/source/GPIO.c **** {
 359              		.loc 1 133 0
 360              		.cfi_startproc
 361              		@ args = 0, pretend = 0, frame = 0
 362              		@ frame_needed = 0, uses_anonymous_args = 0
 363 0000 08B5     		push	{r3, lr}
 364              	.LCFI7:
 365              		.cfi_def_cfa_offset 8
 366              		.cfi_offset 3, -8
 367              		.cfi_offset 14, -4
 134:../user/source/GPIO.c ****     GPIO_WriteBit(GPIOC, GPIO_Pin_13, Bit_RESET); //拉低PC13
 368              		.loc 1 134 0
 369 0002 0022     		movs	r2, #0
 370 0004 4FF40051 		mov	r1, #8192
 371 0008 0148     		ldr	r0, .L15
 372 000a FFF7FEFF 		bl	GPIO_WriteBit
 373              	.LVL26:
 374 000e 08BD     		pop	{r3, pc}
 375              	.L16:
 376              		.align	2
 377              	.L15:
 378 0010 00080048 		.word	1207961600
 379              		.cfi_endproc
 380              	.LFE114:
 382              		.text
 383              	.Letext0:
 384              		.file 2 "d:\\gcc-arm-none-eabi-5_4-2016q3-20160926-win32\\arm-none-eabi\\include\\machine\\_defaul
 385              		.file 3 "d:\\gcc-arm-none-eabi-5_4-2016q3-20160926-win32\\arm-none-eabi\\include\\sys\\_stdint.h"
 386              		.file 4 "../cmsis/include/stm32f37x.h"
 387              		.file 5 "../stdperiph/include/stm32f37x_exti.h"
ARM GAS  C:\Users\strag\AppData\Local\Temp\cciFeIjZ.s 			page 10


 388              		.file 6 "../stdperiph/include/stm32f37x_gpio.h"
 389              		.file 7 "../stdperiph/include/stm32f37x_misc.h"
 390              		.file 8 "../stdperiph/include/stm32f37x_rcc.h"
 391              		.file 9 "../stdperiph/include/stm32f37x_syscfg.h"
 392              		.file 10 "../cmsis/include/core_cm4.h"
ARM GAS  C:\Users\strag\AppData\Local\Temp\cciFeIjZ.s 			page 11


DEFINED SYMBOLS
                            *ABS*:00000000 GPIO.c
C:\Users\strag\AppData\Local\Temp\cciFeIjZ.s:22     .text.vGPIO_Init:00000000 $t
C:\Users\strag\AppData\Local\Temp\cciFeIjZ.s:27     .text.vGPIO_Init:00000000 vGPIO_Init
C:\Users\strag\AppData\Local\Temp\cciFeIjZ.s:214    .text.vGPIO_Init:0000013c $d
C:\Users\strag\AppData\Local\Temp\cciFeIjZ.s:219    .text.vExti_Init:00000000 $t
C:\Users\strag\AppData\Local\Temp\cciFeIjZ.s:224    .text.vExti_Init:00000000 vExti_Init
C:\Users\strag\AppData\Local\Temp\cciFeIjZ.s:306    .text.vExti_Init:00000070 $d
C:\Users\strag\AppData\Local\Temp\cciFeIjZ.s:311    .text.vFeedExtWatchDog:00000000 $t
C:\Users\strag\AppData\Local\Temp\cciFeIjZ.s:316    .text.vFeedExtWatchDog:00000000 vFeedExtWatchDog
C:\Users\strag\AppData\Local\Temp\cciFeIjZ.s:352    .text.vLed_Light:00000000 $t
C:\Users\strag\AppData\Local\Temp\cciFeIjZ.s:357    .text.vLed_Light:00000000 vLed_Light
C:\Users\strag\AppData\Local\Temp\cciFeIjZ.s:378    .text.vLed_Light:00000010 $d
                     .debug_frame:00000010 $d

UNDEFINED SYMBOLS
RCC_AHBPeriphClockCmd
GPIO_PinAFConfig
GPIO_Init
GPIO_WriteBit
RCC_APB2PeriphClockCmd
SYSCFG_EXTILineConfig
EXTI_Init
NVIC_Init
GPIO_ReadInputDataBit
