ARM GAS  C:\Users\strag\AppData\Local\Temp\ccpzZRJU.s 			page 1


   1              		.syntax unified
   2              		.cpu cortex-m4
   3              		.eabi_attribute 27, 1
   4              		.eabi_attribute 28, 1
   5              		.fpu fpv4-sp-d16
   6              		.eabi_attribute 20, 1
   7              		.eabi_attribute 21, 1
   8              		.eabi_attribute 23, 3
   9              		.eabi_attribute 24, 1
  10              		.eabi_attribute 25, 1
  11              		.eabi_attribute 26, 1
  12              		.eabi_attribute 30, 1
  13              		.eabi_attribute 34, 1
  14              		.eabi_attribute 18, 4
  15              		.thumb
  16              		.syntax unified
  17              		.file	"GPIO.c"
  18              		.text
  19              	.Ltext0:
  20              		.cfi_sections	.debug_frame
  21              		.section	.text.vGPIO_Init,"ax",%progbits
  22              		.align	2
  23              		.global	vGPIO_Init
  24              		.thumb
  25              		.thumb_func
  27              	vGPIO_Init:
  28              	.LFB111:
  29              		.file 1 "../user/source/GPIO.c"
   1:../user/source/GPIO.c **** 
   2:../user/source/GPIO.c **** #include "GPIO.h"
   3:../user/source/GPIO.c **** #include "Time.h"
   4:../user/source/GPIO.c **** 
   5:../user/source/GPIO.c **** 
   6:../user/source/GPIO.c **** /**
   7:../user/source/GPIO.c ****   * @brief GPIO初始化函数；
   8:../user/source/GPIO.c ****   * @param  none
   9:../user/source/GPIO.c ****   * @retval none
  10:../user/source/GPIO.c **** 	* B6和B7配置为串口1；B8和B9配置为串口3；A1看门狗输出；A0配置为喂狗；PC13配置为运行灯；
  11:../user/source/GPIO.c ****   */
  12:../user/source/GPIO.c **** void vGPIO_Init(void)
  13:../user/source/GPIO.c **** {
  30              		.loc 1 13 0
  31              		.cfi_startproc
  32              		@ args = 0, pretend = 0, frame = 8
  33              		@ frame_needed = 0, uses_anonymous_args = 0
  34 0000 2DE9F043 		push	{r4, r5, r6, r7, r8, r9, lr}
  35              	.LCFI0:
  36              		.cfi_def_cfa_offset 28
  37              		.cfi_offset 4, -28
  38              		.cfi_offset 5, -24
  39              		.cfi_offset 6, -20
  40              		.cfi_offset 7, -16
  41              		.cfi_offset 8, -12
  42              		.cfi_offset 9, -8
  43              		.cfi_offset 14, -4
  44 0004 83B0     		sub	sp, sp, #12
  45              	.LCFI1:
ARM GAS  C:\Users\strag\AppData\Local\Temp\ccpzZRJU.s 			page 2


  46              		.cfi_def_cfa_offset 40
  14:../user/source/GPIO.c **** 	/*PB6 PB7作为串口*/
  15:../user/source/GPIO.c **** 	GPIO_InitTypeDef GPIO_Initstruc;
  16:../user/source/GPIO.c **** 	RCC_AHBPeriphClockCmd(RCC_AHBPeriph_GPIOB,ENABLE);
  47              		.loc 1 16 0
  48 0006 0121     		movs	r1, #1
  49 0008 4FF48020 		mov	r0, #262144
  50 000c FFF7FEFF 		bl	RCC_AHBPeriphClockCmd
  51              	.LVL0:
  17:../user/source/GPIO.c **** 	GPIO_PinAFConfig(GPIOB,GPIO_PinSource6,GPIO_AF_7);
  52              		.loc 1 17 0
  53 0010 494F     		ldr	r7, .L3
  54 0012 0722     		movs	r2, #7
  55 0014 0621     		movs	r1, #6
  56 0016 3846     		mov	r0, r7
  57 0018 FFF7FEFF 		bl	GPIO_PinAFConfig
  58              	.LVL1:
  18:../user/source/GPIO.c **** 	GPIO_PinAFConfig(GPIOB,GPIO_PinSource7,GPIO_AF_7);
  59              		.loc 1 18 0
  60 001c 0722     		movs	r2, #7
  61 001e 1146     		mov	r1, r2
  62 0020 3846     		mov	r0, r7
  63 0022 FFF7FEFF 		bl	GPIO_PinAFConfig
  64              	.LVL2:
  19:../user/source/GPIO.c **** 	GPIO_Initstruc.GPIO_Mode=GPIO_Mode_AF;
  65              		.loc 1 19 0
  66 0026 0225     		movs	r5, #2
  67 0028 8DF80450 		strb	r5, [sp, #4]
  20:../user/source/GPIO.c **** 	GPIO_Initstruc.GPIO_OType=GPIO_OType_PP;
  68              		.loc 1 20 0
  69 002c 4FF00008 		mov	r8, #0
  70 0030 8DF80680 		strb	r8, [sp, #6]
  21:../user/source/GPIO.c **** 	GPIO_Initstruc.GPIO_PuPd=GPIO_PuPd_UP;
  71              		.loc 1 21 0
  72 0034 0124     		movs	r4, #1
  73 0036 8DF80740 		strb	r4, [sp, #7]
  22:../user/source/GPIO.c **** 	GPIO_Initstruc.GPIO_Speed=GPIO_Speed_2MHz;
  74              		.loc 1 22 0
  75 003a 8DF80550 		strb	r5, [sp, #5]
  23:../user/source/GPIO.c **** 	GPIO_Initstruc.GPIO_Pin=GPIO_Pin_6|GPIO_Pin_7;
  76              		.loc 1 23 0
  77 003e 02AE     		add	r6, sp, #8
  78 0040 C023     		movs	r3, #192
  79 0042 46F8083D 		str	r3, [r6, #-8]!
  24:../user/source/GPIO.c **** 	GPIO_Init(GPIOB,&GPIO_Initstruc);
  80              		.loc 1 24 0
  81 0046 3146     		mov	r1, r6
  82 0048 3846     		mov	r0, r7
  83 004a FFF7FEFF 		bl	GPIO_Init
  84              	.LVL3:
  25:../user/source/GPIO.c **** 	/*PB8 PB9作为串口*/
  26:../user/source/GPIO.c **** 	GPIO_PinAFConfig(GPIOB,GPIO_PinSource8,GPIO_AF_7);
  85              		.loc 1 26 0
  86 004e 0722     		movs	r2, #7
  87 0050 0821     		movs	r1, #8
  88 0052 3846     		mov	r0, r7
  89 0054 FFF7FEFF 		bl	GPIO_PinAFConfig
ARM GAS  C:\Users\strag\AppData\Local\Temp\ccpzZRJU.s 			page 3


  90              	.LVL4:
  27:../user/source/GPIO.c **** 	GPIO_PinAFConfig(GPIOB,GPIO_PinSource9,GPIO_AF_7);
  91              		.loc 1 27 0
  92 0058 0722     		movs	r2, #7
  93 005a 0921     		movs	r1, #9
  94 005c 3846     		mov	r0, r7
  95 005e FFF7FEFF 		bl	GPIO_PinAFConfig
  96              	.LVL5:
  28:../user/source/GPIO.c **** 	GPIO_Initstruc.GPIO_OType=GPIO_OType_PP;	
  97              		.loc 1 28 0
  98 0062 8DF80680 		strb	r8, [sp, #6]
  29:../user/source/GPIO.c **** 	GPIO_Initstruc.GPIO_Pin=GPIO_Pin_8|GPIO_Pin_9;	
  99              		.loc 1 29 0
 100 0066 4FF44073 		mov	r3, #768
 101 006a 0093     		str	r3, [sp]
  30:../user/source/GPIO.c **** 	GPIO_Init(GPIOB,&GPIO_Initstruc);
 102              		.loc 1 30 0
 103 006c 3146     		mov	r1, r6
 104 006e 3846     		mov	r0, r7
 105 0070 FFF7FEFF 		bl	GPIO_Init
 106              	.LVL6:
  31:../user/source/GPIO.c **** 	/*PA0 作为看门狗输出*/
  32:../user/source/GPIO.c **** 	RCC_AHBPeriphClockCmd(RCC_AHBPeriph_GPIOA,ENABLE);
 107              		.loc 1 32 0
 108 0074 2146     		mov	r1, r4
 109 0076 4FF40030 		mov	r0, #131072
 110 007a FFF7FEFF 		bl	RCC_AHBPeriphClockCmd
 111              	.LVL7:
  33:../user/source/GPIO.c **** 	GPIO_Initstruc.GPIO_Pin=GPIO_Pin_0;
 112              		.loc 1 33 0
 113 007e 0094     		str	r4, [sp]
  34:../user/source/GPIO.c **** 	GPIO_Initstruc.GPIO_Mode=GPIO_Mode_OUT;
 114              		.loc 1 34 0
 115 0080 8DF80440 		strb	r4, [sp, #4]
  35:../user/source/GPIO.c **** 	GPIO_Initstruc.GPIO_OType=GPIO_OType_OD;//开漏
 116              		.loc 1 35 0
 117 0084 8DF80640 		strb	r4, [sp, #6]
  36:../user/source/GPIO.c **** 	GPIO_Initstruc.GPIO_Speed=GPIO_Speed_2MHz;
 118              		.loc 1 36 0
 119 0088 8DF80550 		strb	r5, [sp, #5]
  37:../user/source/GPIO.c **** 	GPIO_Initstruc.GPIO_PuPd=GPIO_PuPd_NOPULL;
 120              		.loc 1 37 0
 121 008c 8DF80780 		strb	r8, [sp, #7]
  38:../user/source/GPIO.c **** 	GPIO_Init(GPIOA,&GPIO_Initstruc);
 122              		.loc 1 38 0
 123 0090 3146     		mov	r1, r6
 124 0092 4FF09040 		mov	r0, #1207959552
 125 0096 FFF7FEFF 		bl	GPIO_Init
 126              	.LVL8:
  39:../user/source/GPIO.c **** 	/*PC13 作为指示灯，默认不亮*/
  40:../user/source/GPIO.c **** 	RCC_AHBPeriphClockCmd(RCC_AHBPeriph_GPIOC,ENABLE);
 127              		.loc 1 40 0
 128 009a 2146     		mov	r1, r4
 129 009c 4FF40020 		mov	r0, #524288
 130 00a0 FFF7FEFF 		bl	RCC_AHBPeriphClockCmd
 131              	.LVL9:
  41:../user/source/GPIO.c **** 	GPIO_Initstruc.GPIO_Pin=GPIO_Pin_13;
ARM GAS  C:\Users\strag\AppData\Local\Temp\ccpzZRJU.s 			page 4


 132              		.loc 1 41 0
 133 00a4 4FF40059 		mov	r9, #8192
 134 00a8 CDF80090 		str	r9, [sp]
  42:../user/source/GPIO.c **** 	GPIO_Initstruc.GPIO_Mode=GPIO_Mode_OUT;
 135              		.loc 1 42 0
 136 00ac 8DF80440 		strb	r4, [sp, #4]
  43:../user/source/GPIO.c **** 	GPIO_Initstruc.GPIO_OType=GPIO_OType_OD;//开漏
 137              		.loc 1 43 0
 138 00b0 8DF80640 		strb	r4, [sp, #6]
  44:../user/source/GPIO.c **** 	GPIO_Initstruc.GPIO_Speed=GPIO_Speed_2MHz;
 139              		.loc 1 44 0
 140 00b4 8DF80550 		strb	r5, [sp, #5]
  45:../user/source/GPIO.c **** 	GPIO_Initstruc.GPIO_PuPd=GPIO_PuPd_NOPULL;
  46:../user/source/GPIO.c **** 	GPIO_Initstruc.GPIO_PuPd=GPIO_PuPd_DOWN;//配置为下拉
 141              		.loc 1 46 0
 142 00b8 8DF80750 		strb	r5, [sp, #7]
  47:../user/source/GPIO.c **** 	GPIO_Init(GPIOC,&GPIO_Initstruc);
 143              		.loc 1 47 0
 144 00bc 07F58067 		add	r7, r7, #1024
 145 00c0 3146     		mov	r1, r6
 146 00c2 3846     		mov	r0, r7
 147 00c4 FFF7FEFF 		bl	GPIO_Init
 148              	.LVL10:
  48:../user/source/GPIO.c **** 	GPIO_WriteBit(GPIOC,GPIO_Pin_13,Bit_SET);//输出高电平，LED灭
 149              		.loc 1 48 0
 150 00c8 2246     		mov	r2, r4
 151 00ca 4946     		mov	r1, r9
 152 00cc 3846     		mov	r0, r7
 153 00ce FFF7FEFF 		bl	GPIO_WriteBit
 154              	.LVL11:
  49:../user/source/GPIO.c **** 	/*PA1_配置为PWM输出*/
  50:../user/source/GPIO.c **** 	GPIO_Initstruc.GPIO_Pin=GPIO_Pin_1;
 155              		.loc 1 50 0
 156 00d2 0095     		str	r5, [sp]
  51:../user/source/GPIO.c **** 	GPIO_Initstruc.GPIO_Mode=GPIO_Mode_AF;
 157              		.loc 1 51 0
 158 00d4 8DF80450 		strb	r5, [sp, #4]
  52:../user/source/GPIO.c **** 	GPIO_Initstruc.GPIO_OType=GPIO_OType_PP;
 159              		.loc 1 52 0
 160 00d8 8DF80680 		strb	r8, [sp, #6]
  53:../user/source/GPIO.c **** 	GPIO_Initstruc.GPIO_Speed=GPIO_Speed_50MHz;
 161              		.loc 1 53 0
 162 00dc 0327     		movs	r7, #3
 163 00de 8DF80570 		strb	r7, [sp, #5]
  54:../user/source/GPIO.c **** 	GPIO_Initstruc.GPIO_PuPd=GPIO_PuPd_UP;
 164              		.loc 1 54 0
 165 00e2 8DF80740 		strb	r4, [sp, #7]
  55:../user/source/GPIO.c **** 	GPIO_Init(GPIOA,&GPIO_Initstruc);
 166              		.loc 1 55 0
 167 00e6 3146     		mov	r1, r6
 168 00e8 4FF09040 		mov	r0, #1207959552
 169 00ec FFF7FEFF 		bl	GPIO_Init
 170              	.LVL12:
  56:../user/source/GPIO.c **** 	GPIO_PinAFConfig(GPIOA, GPIO_PinSource1, GPIO_AF_2);//复用功能:TIM5
 171              		.loc 1 56 0
 172 00f0 2A46     		mov	r2, r5
 173 00f2 2146     		mov	r1, r4
ARM GAS  C:\Users\strag\AppData\Local\Temp\ccpzZRJU.s 			page 5


 174 00f4 4FF09040 		mov	r0, #1207959552
 175 00f8 FFF7FEFF 		bl	GPIO_PinAFConfig
 176              	.LVL13:
  57:../user/source/GPIO.c **** 	/*PA2 PA3作为串口2发、收*/
  58:../user/source/GPIO.c **** 	GPIO_PinAFConfig(GPIOA,GPIO_PinSource2,GPIO_AF_7);
 177              		.loc 1 58 0
 178 00fc 0722     		movs	r2, #7
 179 00fe 2946     		mov	r1, r5
 180 0100 4FF09040 		mov	r0, #1207959552
 181 0104 FFF7FEFF 		bl	GPIO_PinAFConfig
 182              	.LVL14:
  59:../user/source/GPIO.c **** 	GPIO_PinAFConfig(GPIOA,GPIO_PinSource3,GPIO_AF_7);
 183              		.loc 1 59 0
 184 0108 0722     		movs	r2, #7
 185 010a 3946     		mov	r1, r7
 186 010c 4FF09040 		mov	r0, #1207959552
 187 0110 FFF7FEFF 		bl	GPIO_PinAFConfig
 188              	.LVL15:
  60:../user/source/GPIO.c **** 	GPIO_Initstruc.GPIO_Mode=GPIO_Mode_AF;
 189              		.loc 1 60 0
 190 0114 8DF80450 		strb	r5, [sp, #4]
  61:../user/source/GPIO.c **** 	GPIO_Initstruc.GPIO_OType=GPIO_OType_PP;
 191              		.loc 1 61 0
 192 0118 8DF80680 		strb	r8, [sp, #6]
  62:../user/source/GPIO.c **** 	GPIO_Initstruc.GPIO_PuPd=GPIO_PuPd_UP;
 193              		.loc 1 62 0
 194 011c 8DF80740 		strb	r4, [sp, #7]
  63:../user/source/GPIO.c **** 	GPIO_Initstruc.GPIO_Speed=GPIO_Speed_2MHz;
 195              		.loc 1 63 0
 196 0120 8DF80550 		strb	r5, [sp, #5]
  64:../user/source/GPIO.c **** 	GPIO_Initstruc.GPIO_Pin=GPIO_Pin_2|GPIO_Pin_3;
 197              		.loc 1 64 0
 198 0124 0C23     		movs	r3, #12
 199 0126 0093     		str	r3, [sp]
  65:../user/source/GPIO.c **** 	GPIO_Init(GPIOA,&GPIO_Initstruc);
 200              		.loc 1 65 0
 201 0128 3146     		mov	r1, r6
 202 012a 4FF09040 		mov	r0, #1207959552
 203 012e FFF7FEFF 		bl	GPIO_Init
 204              	.LVL16:
  66:../user/source/GPIO.c **** }
 205              		.loc 1 66 0
 206 0132 03B0     		add	sp, sp, #12
 207              	.LCFI2:
 208              		.cfi_def_cfa_offset 28
 209              		@ sp needed
 210 0134 BDE8F083 		pop	{r4, r5, r6, r7, r8, r9, pc}
 211              	.L4:
 212              		.align	2
 213              	.L3:
 214 0138 00040048 		.word	1207960576
 215              		.cfi_endproc
 216              	.LFE111:
 218              		.section	.text.vFeedExtWatchDog,"ax",%progbits
 219              		.align	2
 220              		.global	vFeedExtWatchDog
 221              		.thumb
ARM GAS  C:\Users\strag\AppData\Local\Temp\ccpzZRJU.s 			page 6


 222              		.thumb_func
 224              	vFeedExtWatchDog:
 225              	.LFB112:
  67:../user/source/GPIO.c **** /********************************************************************
  68:../user/source/GPIO.c **** * 功    能：喂狗函数
  69:../user/source/GPIO.c **** * 输    入：void
  70:../user/source/GPIO.c **** * 输    出：	void
  71:../user/source/GPIO.c **** * 编 写 人：王君龙
  72:../user/source/GPIO.c **** * 编写日期：2017.3.21
  73:../user/source/GPIO.c **** **********************************************************************/
  74:../user/source/GPIO.c **** void vFeedExtWatchDog(void)
  75:../user/source/GPIO.c **** {
 226              		.loc 1 75 0
 227              		.cfi_startproc
 228              		@ args = 0, pretend = 0, frame = 0
 229              		@ frame_needed = 0, uses_anonymous_args = 0
 230 0000 08B5     		push	{r3, lr}
 231              	.LCFI3:
 232              		.cfi_def_cfa_offset 8
 233              		.cfi_offset 3, -8
 234              		.cfi_offset 14, -4
  76:../user/source/GPIO.c **** 	if(GPIO_ReadInputDataBit(GPIOA,GPIO_Pin_0))
 235              		.loc 1 76 0
 236 0002 0121     		movs	r1, #1
 237 0004 4FF09040 		mov	r0, #1207959552
 238 0008 FFF7FEFF 		bl	GPIO_ReadInputDataBit
 239              	.LVL17:
 240 000c 30B1     		cbz	r0, .L6
  77:../user/source/GPIO.c **** 	{
  78:../user/source/GPIO.c **** 		GPIO_WriteBit(GPIOA,GPIO_Pin_0,Bit_RESET); 	
 241              		.loc 1 78 0
 242 000e 0022     		movs	r2, #0
 243 0010 0121     		movs	r1, #1
 244 0012 4FF09040 		mov	r0, #1207959552
 245 0016 FFF7FEFF 		bl	GPIO_WriteBit
 246              	.LVL18:
 247 001a 08BD     		pop	{r3, pc}
 248              	.L6:
  79:../user/source/GPIO.c **** 	}
  80:../user/source/GPIO.c **** 	else
  81:../user/source/GPIO.c **** 	{
  82:../user/source/GPIO.c **** 		GPIO_WriteBit(GPIOA,GPIO_Pin_0,Bit_SET); 	
 249              		.loc 1 82 0
 250 001c 0122     		movs	r2, #1
 251 001e 1146     		mov	r1, r2
 252 0020 4FF09040 		mov	r0, #1207959552
 253 0024 FFF7FEFF 		bl	GPIO_WriteBit
 254              	.LVL19:
 255 0028 08BD     		pop	{r3, pc}
 256              		.cfi_endproc
 257              	.LFE112:
 259 002a 00BF     		.section	.text.vLed_Light,"ax",%progbits
 260              		.align	2
 261              		.global	vLed_Light
 262              		.thumb
 263              		.thumb_func
 265              	vLed_Light:
ARM GAS  C:\Users\strag\AppData\Local\Temp\ccpzZRJU.s 			page 7


 266              	.LFB113:
  83:../user/source/GPIO.c **** 	}
  84:../user/source/GPIO.c **** }
  85:../user/source/GPIO.c **** /********************************************************************
  86:../user/source/GPIO.c **** * 功    能：点亮指示灯
  87:../user/source/GPIO.c **** * 输    入：void
  88:../user/source/GPIO.c **** * 输    出：	void
  89:../user/source/GPIO.c **** * 编 写 人：stragen
  90:../user/source/GPIO.c **** * 编写日期：2017.3.21
  91:../user/source/GPIO.c **** **********************************************************************/
  92:../user/source/GPIO.c **** void vLed_Light(void)
  93:../user/source/GPIO.c **** {
 267              		.loc 1 93 0
 268              		.cfi_startproc
 269              		@ args = 0, pretend = 0, frame = 0
 270              		@ frame_needed = 0, uses_anonymous_args = 0
 271 0000 08B5     		push	{r3, lr}
 272              	.LCFI4:
 273              		.cfi_def_cfa_offset 8
 274              		.cfi_offset 3, -8
 275              		.cfi_offset 14, -4
  94:../user/source/GPIO.c **** 		GPIO_WriteBit(GPIOC,GPIO_Pin_13,Bit_RESET); //拉低PC13
 276              		.loc 1 94 0
 277 0002 0022     		movs	r2, #0
 278 0004 4FF40051 		mov	r1, #8192
 279 0008 0148     		ldr	r0, .L11
 280 000a FFF7FEFF 		bl	GPIO_WriteBit
 281              	.LVL20:
 282 000e 08BD     		pop	{r3, pc}
 283              	.L12:
 284              		.align	2
 285              	.L11:
 286 0010 00080048 		.word	1207961600
 287              		.cfi_endproc
 288              	.LFE113:
 290              		.text
 291              	.Letext0:
 292              		.file 2 "d:\\gcc-arm-none-eabi-5_4-2016q3-20160926-win32\\arm-none-eabi\\include\\machine\\_defaul
 293              		.file 3 "d:\\gcc-arm-none-eabi-5_4-2016q3-20160926-win32\\arm-none-eabi\\include\\sys\\_stdint.h"
 294              		.file 4 "../cmsis/include/stm32f37x.h"
 295              		.file 5 "../stdperiph/include/stm32f37x_gpio.h"
 296              		.file 6 "../stdperiph/include/stm32f37x_rcc.h"
 297              		.file 7 "../cmsis/include/core_cm4.h"
ARM GAS  C:\Users\strag\AppData\Local\Temp\ccpzZRJU.s 			page 8

