ARM GAS  C:\Users\strag\AppData\Local\Temp\ccbM5IRc.s 			page 1


   1              		.syntax unified
   2              		.cpu cortex-m4
   3              		.eabi_attribute 27, 1
   4              		.eabi_attribute 28, 1
   5              		.fpu fpv4-sp-d16
   6              		.eabi_attribute 20, 1
   7              		.eabi_attribute 21, 1
   8              		.eabi_attribute 23, 3
   9              		.eabi_attribute 24, 1
  10              		.eabi_attribute 25, 1
  11              		.eabi_attribute 26, 1
  12              		.eabi_attribute 30, 1
  13              		.eabi_attribute 34, 1
  14              		.eabi_attribute 18, 4
  15              		.thumb
  16              		.syntax unified
  17              		.file	"stm32f37x_it.c"
  18              		.text
  19              	.Ltext0:
  20              		.cfi_sections	.debug_frame
  21              		.section	.text.NMI_Handler,"ax",%progbits
  22              		.align	2
  23              		.global	NMI_Handler
  24              		.thumb
  25              		.thumb_func
  27              	NMI_Handler:
  28              	.LFB111:
  29              		.file 1 "../user/source/stm32f37x_it.c"
   1:../user/source/stm32f37x_it.c **** /**
   2:../user/source/stm32f37x_it.c ****   ******************************************************************************
   3:../user/source/stm32f37x_it.c ****   * @file    Project/STM32F37x_StdPeriph_Templates/stm32f37x_it.c 
   4:../user/source/stm32f37x_it.c ****   * @author  MCD Application Team
   5:../user/source/stm32f37x_it.c ****   * @version V1.0.0
   6:../user/source/stm32f37x_it.c ****   * @date    20-September-2012
   7:../user/source/stm32f37x_it.c ****   * @brief   Main Interrupt Service Routines.
   8:../user/source/stm32f37x_it.c ****   *          This file provides template for all exceptions handler and 
   9:../user/source/stm32f37x_it.c ****   *          peripherals interrupt service routine.
  10:../user/source/stm32f37x_it.c ****   ******************************************************************************
  11:../user/source/stm32f37x_it.c ****   * @attention
  12:../user/source/stm32f37x_it.c ****   *
  13:../user/source/stm32f37x_it.c ****   * <h2><center>&copy; COPYRIGHT 2012 STMicroelectronics</center></h2>
  14:../user/source/stm32f37x_it.c ****   *
  15:../user/source/stm32f37x_it.c ****   * Licensed under MCD-ST Liberty SW License Agreement V2, (the "License");
  16:../user/source/stm32f37x_it.c ****   * You may not use this file except in compliance with the License.
  17:../user/source/stm32f37x_it.c ****   * You may obtain a copy of the License at:
  18:../user/source/stm32f37x_it.c ****   *
  19:../user/source/stm32f37x_it.c ****   *        http://www.st.com/software_license_agreement_liberty_v2
  20:../user/source/stm32f37x_it.c ****   *
  21:../user/source/stm32f37x_it.c ****   * Unless required by applicable law or agreed to in writing, software 
  22:../user/source/stm32f37x_it.c ****   * distributed under the License is distributed on an "AS IS" BASIS, 
  23:../user/source/stm32f37x_it.c ****   * WITHOUT WARRANTIES OR CONDITIONS OF ANY KIND, either express or implied.
  24:../user/source/stm32f37x_it.c ****   * See the License for the specific language governing permissions and
  25:../user/source/stm32f37x_it.c ****   * limitations under the License.
  26:../user/source/stm32f37x_it.c ****   *
  27:../user/source/stm32f37x_it.c ****   ******************************************************************************
  28:../user/source/stm32f37x_it.c ****   */
  29:../user/source/stm32f37x_it.c **** 
ARM GAS  C:\Users\strag\AppData\Local\Temp\ccbM5IRc.s 			page 2


  30:../user/source/stm32f37x_it.c **** /* Includes ------------------------------------------------------------------*/
  31:../user/source/stm32f37x_it.c **** //#include "stdlib.h"
  32:../user/source/stm32f37x_it.c **** #include "stm32f37x_it.h"
  33:../user/source/stm32f37x_it.c **** #include "main.h"
  34:../user/source/stm32f37x_it.c **** #include "Uart.h"
  35:../user/source/stm32f37x_it.c **** #include "Time.h"
  36:../user/source/stm32f37x_it.c **** 
  37:../user/source/stm32f37x_it.c **** uint16_t capture = 0;
  38:../user/source/stm32f37x_it.c **** /** @addtogroup Template_Project
  39:../user/source/stm32f37x_it.c ****   * @{
  40:../user/source/stm32f37x_it.c ****   */
  41:../user/source/stm32f37x_it.c **** 
  42:../user/source/stm32f37x_it.c **** /* Private typedef -----------------------------------------------------------*/
  43:../user/source/stm32f37x_it.c **** /* Private define ------------------------------------------------------------*/
  44:../user/source/stm32f37x_it.c **** /* Private macro -------------------------------------------------------------*/
  45:../user/source/stm32f37x_it.c **** /* Private variables ---------------------------------------------------------*/
  46:../user/source/stm32f37x_it.c **** /* Private function prototypes -----------------------------------------------*/
  47:../user/source/stm32f37x_it.c **** /* Private functions ---------------------------------------------------------*/
  48:../user/source/stm32f37x_it.c **** 
  49:../user/source/stm32f37x_it.c **** /******************************************************************************/
  50:../user/source/stm32f37x_it.c **** /*            Cortex-M4 Processor Exceptions Handlers                         */
  51:../user/source/stm32f37x_it.c **** /******************************************************************************/
  52:../user/source/stm32f37x_it.c **** 
  53:../user/source/stm32f37x_it.c **** /**
  54:../user/source/stm32f37x_it.c ****   * @brief  This function handles NMI exception.
  55:../user/source/stm32f37x_it.c ****   * @param  None
  56:../user/source/stm32f37x_it.c ****   * @retval None
  57:../user/source/stm32f37x_it.c ****   */
  58:../user/source/stm32f37x_it.c **** void NMI_Handler(void)
  59:../user/source/stm32f37x_it.c **** {
  30              		.loc 1 59 0
  31              		.cfi_startproc
  32              		@ args = 0, pretend = 0, frame = 0
  33              		@ frame_needed = 0, uses_anonymous_args = 0
  34              		@ link register save eliminated.
  35 0000 7047     		bx	lr
  36              		.cfi_endproc
  37              	.LFE111:
  39 0002 00BF     		.section	.text.HardFault_Handler,"ax",%progbits
  40              		.align	2
  41              		.global	HardFault_Handler
  42              		.thumb
  43              		.thumb_func
  45              	HardFault_Handler:
  46              	.LFB112:
  60:../user/source/stm32f37x_it.c **** }
  61:../user/source/stm32f37x_it.c **** 
  62:../user/source/stm32f37x_it.c **** /**
  63:../user/source/stm32f37x_it.c ****   * @brief  This function handles Hard Fault exception.
  64:../user/source/stm32f37x_it.c ****   * @param  None
  65:../user/source/stm32f37x_it.c ****   * @retval None
  66:../user/source/stm32f37x_it.c ****   */
  67:../user/source/stm32f37x_it.c **** void HardFault_Handler(void)
  68:../user/source/stm32f37x_it.c **** {
  47              		.loc 1 68 0
  48              		.cfi_startproc
  49              		@ Volatile: function does not return.
ARM GAS  C:\Users\strag\AppData\Local\Temp\ccbM5IRc.s 			page 3


  50              		@ args = 0, pretend = 0, frame = 0
  51              		@ frame_needed = 0, uses_anonymous_args = 0
  52              		@ link register save eliminated.
  53              	.L3:
  54 0000 FEE7     		b	.L3
  55              		.cfi_endproc
  56              	.LFE112:
  58 0002 00BF     		.section	.text.MemManage_Handler,"ax",%progbits
  59              		.align	2
  60              		.global	MemManage_Handler
  61              		.thumb
  62              		.thumb_func
  64              	MemManage_Handler:
  65              	.LFB113:
  69:../user/source/stm32f37x_it.c ****     //	if (CoreDebug->DHCSR & 1) {  //check C_DEBUGEN == 1 -> Debugger Connected
  70:../user/source/stm32f37x_it.c ****     //      __breakpoint(0);  // halt program execution here
  71:../user/source/stm32f37x_it.c ****     //  }
  72:../user/source/stm32f37x_it.c **** 
  73:../user/source/stm32f37x_it.c ****     /* Go to infinite loop when Hard Fault exception occurs */
  74:../user/source/stm32f37x_it.c ****     while (1)
  75:../user/source/stm32f37x_it.c ****     {
  76:../user/source/stm32f37x_it.c ****     }
  77:../user/source/stm32f37x_it.c **** }
  78:../user/source/stm32f37x_it.c **** 
  79:../user/source/stm32f37x_it.c **** /**
  80:../user/source/stm32f37x_it.c ****   * @brief  This function handles Memory Manage exception.
  81:../user/source/stm32f37x_it.c ****   * @param  None
  82:../user/source/stm32f37x_it.c ****   * @retval None
  83:../user/source/stm32f37x_it.c ****   */
  84:../user/source/stm32f37x_it.c **** void MemManage_Handler(void)
  85:../user/source/stm32f37x_it.c **** {
  66              		.loc 1 85 0
  67              		.cfi_startproc
  68              		@ Volatile: function does not return.
  69              		@ args = 0, pretend = 0, frame = 0
  70              		@ frame_needed = 0, uses_anonymous_args = 0
  71              		@ link register save eliminated.
  72              	.L5:
  73 0000 FEE7     		b	.L5
  74              		.cfi_endproc
  75              	.LFE113:
  77 0002 00BF     		.section	.text.BusFault_Handler,"ax",%progbits
  78              		.align	2
  79              		.global	BusFault_Handler
  80              		.thumb
  81              		.thumb_func
  83              	BusFault_Handler:
  84              	.LFB114:
  86:../user/source/stm32f37x_it.c ****     /* Go to infinite loop when Memory Manage exception occurs */
  87:../user/source/stm32f37x_it.c ****     while (1)
  88:../user/source/stm32f37x_it.c ****     {
  89:../user/source/stm32f37x_it.c ****     }
  90:../user/source/stm32f37x_it.c **** }
  91:../user/source/stm32f37x_it.c **** 
  92:../user/source/stm32f37x_it.c **** /**
  93:../user/source/stm32f37x_it.c ****   * @brief  This function handles Bus Fault exception.
  94:../user/source/stm32f37x_it.c ****   * @param  None
ARM GAS  C:\Users\strag\AppData\Local\Temp\ccbM5IRc.s 			page 4


  95:../user/source/stm32f37x_it.c ****   * @retval None
  96:../user/source/stm32f37x_it.c ****   */
  97:../user/source/stm32f37x_it.c **** void BusFault_Handler(void)
  98:../user/source/stm32f37x_it.c **** {
  85              		.loc 1 98 0
  86              		.cfi_startproc
  87              		@ Volatile: function does not return.
  88              		@ args = 0, pretend = 0, frame = 0
  89              		@ frame_needed = 0, uses_anonymous_args = 0
  90              		@ link register save eliminated.
  91              	.L7:
  92 0000 FEE7     		b	.L7
  93              		.cfi_endproc
  94              	.LFE114:
  96 0002 00BF     		.section	.text.UsageFault_Handler,"ax",%progbits
  97              		.align	2
  98              		.global	UsageFault_Handler
  99              		.thumb
 100              		.thumb_func
 102              	UsageFault_Handler:
 103              	.LFB115:
  99:../user/source/stm32f37x_it.c ****     /* Go to infinite loop when Bus Fault exception occurs */
 100:../user/source/stm32f37x_it.c ****     while (1)
 101:../user/source/stm32f37x_it.c ****     {
 102:../user/source/stm32f37x_it.c ****     }
 103:../user/source/stm32f37x_it.c **** }
 104:../user/source/stm32f37x_it.c **** 
 105:../user/source/stm32f37x_it.c **** /**
 106:../user/source/stm32f37x_it.c ****   * @brief  This function handles Usage Fault exception.
 107:../user/source/stm32f37x_it.c ****   * @param  None
 108:../user/source/stm32f37x_it.c ****   * @retval None
 109:../user/source/stm32f37x_it.c ****   */
 110:../user/source/stm32f37x_it.c **** void UsageFault_Handler(void)
 111:../user/source/stm32f37x_it.c **** {
 104              		.loc 1 111 0
 105              		.cfi_startproc
 106              		@ Volatile: function does not return.
 107              		@ args = 0, pretend = 0, frame = 0
 108              		@ frame_needed = 0, uses_anonymous_args = 0
 109              		@ link register save eliminated.
 110              	.L9:
 111 0000 FEE7     		b	.L9
 112              		.cfi_endproc
 113              	.LFE115:
 115 0002 00BF     		.section	.text.SVC_Handler,"ax",%progbits
 116              		.align	2
 117              		.global	SVC_Handler
 118              		.thumb
 119              		.thumb_func
 121              	SVC_Handler:
 122              	.LFB116:
 112:../user/source/stm32f37x_it.c ****     /* Go to infinite loop when Usage Fault exception occurs */
 113:../user/source/stm32f37x_it.c ****     while (1)
 114:../user/source/stm32f37x_it.c ****     {
 115:../user/source/stm32f37x_it.c ****     }
 116:../user/source/stm32f37x_it.c **** }
 117:../user/source/stm32f37x_it.c **** 
ARM GAS  C:\Users\strag\AppData\Local\Temp\ccbM5IRc.s 			page 5


 118:../user/source/stm32f37x_it.c **** /**
 119:../user/source/stm32f37x_it.c ****   * @brief  This function handles SVCall exception.
 120:../user/source/stm32f37x_it.c ****   * @param  None
 121:../user/source/stm32f37x_it.c ****   * @retval None
 122:../user/source/stm32f37x_it.c ****   */
 123:../user/source/stm32f37x_it.c **** void SVC_Handler(void)
 124:../user/source/stm32f37x_it.c **** {
 123              		.loc 1 124 0
 124              		.cfi_startproc
 125              		@ args = 0, pretend = 0, frame = 0
 126              		@ frame_needed = 0, uses_anonymous_args = 0
 127              		@ link register save eliminated.
 128 0000 7047     		bx	lr
 129              		.cfi_endproc
 130              	.LFE116:
 132 0002 00BF     		.section	.text.DebugMon_Handler,"ax",%progbits
 133              		.align	2
 134              		.global	DebugMon_Handler
 135              		.thumb
 136              		.thumb_func
 138              	DebugMon_Handler:
 139              	.LFB117:
 125:../user/source/stm32f37x_it.c **** }
 126:../user/source/stm32f37x_it.c **** 
 127:../user/source/stm32f37x_it.c **** /**
 128:../user/source/stm32f37x_it.c ****   * @brief  This function handles Debug Monitor exception.
 129:../user/source/stm32f37x_it.c ****   * @param  None
 130:../user/source/stm32f37x_it.c ****   * @retval None
 131:../user/source/stm32f37x_it.c ****   */
 132:../user/source/stm32f37x_it.c **** void DebugMon_Handler(void)
 133:../user/source/stm32f37x_it.c **** {
 140              		.loc 1 133 0
 141              		.cfi_startproc
 142              		@ args = 0, pretend = 0, frame = 0
 143              		@ frame_needed = 0, uses_anonymous_args = 0
 144              		@ link register save eliminated.
 145 0000 7047     		bx	lr
 146              		.cfi_endproc
 147              	.LFE117:
 149 0002 00BF     		.section	.text.PendSV_Handler,"ax",%progbits
 150              		.align	2
 151              		.global	PendSV_Handler
 152              		.thumb
 153              		.thumb_func
 155              	PendSV_Handler:
 156              	.LFB118:
 134:../user/source/stm32f37x_it.c **** }
 135:../user/source/stm32f37x_it.c **** 
 136:../user/source/stm32f37x_it.c **** /**
 137:../user/source/stm32f37x_it.c ****   * @brief  This function handles PendSVC exception.
 138:../user/source/stm32f37x_it.c ****   * @param  None
 139:../user/source/stm32f37x_it.c ****   * @retval None
 140:../user/source/stm32f37x_it.c ****   */
 141:../user/source/stm32f37x_it.c **** void PendSV_Handler(void)
 142:../user/source/stm32f37x_it.c **** {
 157              		.loc 1 142 0
 158              		.cfi_startproc
ARM GAS  C:\Users\strag\AppData\Local\Temp\ccbM5IRc.s 			page 6


 159              		@ args = 0, pretend = 0, frame = 0
 160              		@ frame_needed = 0, uses_anonymous_args = 0
 161              		@ link register save eliminated.
 162 0000 7047     		bx	lr
 163              		.cfi_endproc
 164              	.LFE118:
 166 0002 00BF     		.section	.text.SysTick_Handler,"ax",%progbits
 167              		.align	2
 168              		.global	SysTick_Handler
 169              		.thumb
 170              		.thumb_func
 172              	SysTick_Handler:
 173              	.LFB119:
 143:../user/source/stm32f37x_it.c **** }
 144:../user/source/stm32f37x_it.c **** 
 145:../user/source/stm32f37x_it.c **** /**
 146:../user/source/stm32f37x_it.c ****   * @brief  This function handles SysTick Handler.
 147:../user/source/stm32f37x_it.c ****   * @param  None
 148:../user/source/stm32f37x_it.c ****   * @retval None
 149:../user/source/stm32f37x_it.c ****   */
 150:../user/source/stm32f37x_it.c **** void SysTick_Handler(void)
 151:../user/source/stm32f37x_it.c **** {
 174              		.loc 1 151 0
 175              		.cfi_startproc
 176              		@ args = 0, pretend = 0, frame = 0
 177              		@ frame_needed = 0, uses_anonymous_args = 0
 178              		.loc 1 151 0
 179 0000 08B5     		push	{r3, lr}
 180              	.LCFI0:
 181              		.cfi_def_cfa_offset 8
 182              		.cfi_offset 3, -8
 183              		.cfi_offset 14, -4
 152:../user/source/stm32f37x_it.c ****     if (Bit_SET == GPIO_ReadOutputDataBit(GPIOC, GPIO_Pin_13))
 184              		.loc 1 152 0
 185 0002 4FF40051 		mov	r1, #8192
 186 0006 0948     		ldr	r0, .L17
 187 0008 FFF7FEFF 		bl	GPIO_ReadOutputDataBit
 188              	.LVL0:
 189 000c 0128     		cmp	r0, #1
 190 000e 06D1     		bne	.L14
 153:../user/source/stm32f37x_it.c ****     {
 154:../user/source/stm32f37x_it.c ****         GPIO_WriteBit(GPIOC, GPIO_Pin_13, Bit_RESET); //拉低PC13
 191              		.loc 1 154 0
 192 0010 0022     		movs	r2, #0
 193 0012 4FF40051 		mov	r1, #8192
 194 0016 0548     		ldr	r0, .L17
 195 0018 FFF7FEFF 		bl	GPIO_WriteBit
 196              	.LVL1:
 197 001c 08BD     		pop	{r3, pc}
 198              	.L14:
 155:../user/source/stm32f37x_it.c ****     }
 156:../user/source/stm32f37x_it.c ****     else
 157:../user/source/stm32f37x_it.c ****     {
 158:../user/source/stm32f37x_it.c ****         GPIO_WriteBit(GPIOC, GPIO_Pin_13, Bit_SET);
 199              		.loc 1 158 0
 200 001e 0122     		movs	r2, #1
 201 0020 4FF40051 		mov	r1, #8192
ARM GAS  C:\Users\strag\AppData\Local\Temp\ccbM5IRc.s 			page 7


 202 0024 0148     		ldr	r0, .L17
 203 0026 FFF7FEFF 		bl	GPIO_WriteBit
 204              	.LVL2:
 205 002a 08BD     		pop	{r3, pc}
 206              	.L18:
 207              		.align	2
 208              	.L17:
 209 002c 00080048 		.word	1207961600
 210              		.cfi_endproc
 211              	.LFE119:
 213              		.section	.text.USART1_IRQHandler,"ax",%progbits
 214              		.align	2
 215              		.global	USART1_IRQHandler
 216              		.thumb
 217              		.thumb_func
 219              	USART1_IRQHandler:
 220              	.LFB120:
 159:../user/source/stm32f37x_it.c ****     }
 160:../user/source/stm32f37x_it.c **** }
 161:../user/source/stm32f37x_it.c **** 
 162:../user/source/stm32f37x_it.c **** /******************************************************************************/
 163:../user/source/stm32f37x_it.c **** /*                 STM32F37x Peripherals Interrupt Handlers                   */
 164:../user/source/stm32f37x_it.c **** /*  Add here the Interrupt Handler for the used peripheral(s) (PPP), for the  */
 165:../user/source/stm32f37x_it.c **** /*  available peripheral interrupt handler's name please refer to the startup */
 166:../user/source/stm32f37x_it.c **** /*  file (startup_stm32f37x.s).                                            */
 167:../user/source/stm32f37x_it.c **** /******************************************************************************/
 168:../user/source/stm32f37x_it.c **** 
 169:../user/source/stm32f37x_it.c **** /**
 170:../user/source/stm32f37x_it.c ****   * @brief  This function handles PPP interrupt request.
 171:../user/source/stm32f37x_it.c ****   * @param  None
 172:../user/source/stm32f37x_it.c ****   * @retval None
 173:../user/source/stm32f37x_it.c ****   */
 174:../user/source/stm32f37x_it.c **** /*void PPP_IRQHandler(void)
 175:../user/source/stm32f37x_it.c **** {
 176:../user/source/stm32f37x_it.c **** }*/
 177:../user/source/stm32f37x_it.c **** 
 178:../user/source/stm32f37x_it.c **** /********************************************************************
 179:../user/source/stm32f37x_it.c **** * 功    能：USART1_IRQHandler中断函数
 180:../user/source/stm32f37x_it.c ****             将串口数据写到Uart1缓存结构体中的数组
 181:../user/source/stm32f37x_it.c **** * 输    入：None
 182:../user/source/stm32f37x_it.c **** * 输    出：None
 183:../user/source/stm32f37x_it.c **** *           
 184:../user/source/stm32f37x_it.c **** * 编 写 人：王君龙
 185:../user/source/stm32f37x_it.c **** * 编写日期：2016.6.23
 186:../user/source/stm32f37x_it.c **** **********************************************************************/
 187:../user/source/stm32f37x_it.c **** void USART1_IRQHandler(void)
 188:../user/source/stm32f37x_it.c **** {
 221              		.loc 1 188 0
 222              		.cfi_startproc
 223              		@ args = 0, pretend = 0, frame = 0
 224              		@ frame_needed = 0, uses_anonymous_args = 0
 225 0000 38B5     		push	{r3, r4, r5, lr}
 226              	.LCFI1:
 227              		.cfi_def_cfa_offset 16
 228              		.cfi_offset 3, -16
 229              		.cfi_offset 4, -12
 230              		.cfi_offset 5, -8
ARM GAS  C:\Users\strag\AppData\Local\Temp\ccbM5IRc.s 			page 8


 231              		.cfi_offset 14, -4
 189:../user/source/stm32f37x_it.c ****     if (USART_GetFlagStatus(USART1, USART_FLAG_ORE))
 232              		.loc 1 189 0
 233 0002 0821     		movs	r1, #8
 234 0004 2848     		ldr	r0, .L24
 235 0006 FFF7FEFF 		bl	USART_GetFlagStatus
 236              	.LVL3:
 237 000a 18B1     		cbz	r0, .L20
 190:../user/source/stm32f37x_it.c ****     {
 191:../user/source/stm32f37x_it.c ****         USART_ClearFlag(USART1, USART_FLAG_ORE);
 238              		.loc 1 191 0
 239 000c 0821     		movs	r1, #8
 240 000e 2648     		ldr	r0, .L24
 241 0010 FFF7FEFF 		bl	USART_ClearFlag
 242              	.LVL4:
 243              	.L20:
 192:../user/source/stm32f37x_it.c ****     }
 193:../user/source/stm32f37x_it.c **** 
 194:../user/source/stm32f37x_it.c ****     if (USART_GetITStatus(USART1, USART_IT_RXNE) != RESET)
 244              		.loc 1 194 0
 245 0014 2549     		ldr	r1, .L24+4
 246 0016 2448     		ldr	r0, .L24
 247 0018 FFF7FEFF 		bl	USART_GetITStatus
 248              	.LVL5:
 249 001c C8B1     		cbz	r0, .L21
 195:../user/source/stm32f37x_it.c ****     {
 196:../user/source/stm32f37x_it.c ****         if (blDrv_Buf_IsFull(&ucDrv_Buf_Uart1_Rcv) != true) //if串口1接收缓存区不满
 250              		.loc 1 196 0
 251 001e 2448     		ldr	r0, .L24+8
 252 0020 FFF7FEFF 		bl	blDrv_Buf_IsFull
 253              	.LVL6:
 254 0024 A8B9     		cbnz	r0, .L21
 197:../user/source/stm32f37x_it.c ****         {
 198:../user/source/stm32f37x_it.c ****             ucDrv_Buf_Uart1_Rcv.ucBuf[ucDrv_Buf_Uart1_Rcv.WR_Index] = (uint8_t)USART_ReceiveData(US
 255              		.loc 1 198 0
 256 0026 224C     		ldr	r4, .L24+8
 257 0028 B4F82C51 		ldrh	r5, [r4, #300]
 258 002c 1E48     		ldr	r0, .L24
 259 002e FFF7FEFF 		bl	USART_ReceiveData
 260              	.LVL7:
 261 0032 6055     		strb	r0, [r4, r5]
 199:../user/source/stm32f37x_it.c ****             ucDrv_Buf_Uart1_Rcv.WR_Index = (ucDrv_Buf_Uart1_Rcv.WR_Index + 1) % DRV_BUF_SIZE;
 262              		.loc 1 199 0
 263 0034 B4F82C21 		ldrh	r2, [r4, #300]
 264 0038 0132     		adds	r2, r2, #1
 265 003a 1E4B     		ldr	r3, .L24+12
 266 003c 83FB0231 		smull	r3, r1, r3, r2
 267 0040 D317     		asrs	r3, r2, #31
 268 0042 C3EB6113 		rsb	r3, r3, r1, asr #5
 269 0046 4FF49671 		mov	r1, #300
 270 004a 01FB1323 		mls	r3, r1, r3, r2
 271 004e A4F82C31 		strh	r3, [r4, #300]	@ movhi
 272              	.L21:
 200:../user/source/stm32f37x_it.c ****         }
 201:../user/source/stm32f37x_it.c ****     };
 202:../user/source/stm32f37x_it.c **** 
 203:../user/source/stm32f37x_it.c ****     //从串口1的发送缓存向外发一个字节
ARM GAS  C:\Users\strag\AppData\Local\Temp\ccbM5IRc.s 			page 9


 204:../user/source/stm32f37x_it.c ****     if (USART_GetITStatus(USART1, USART_IT_TXE) != RESET)
 273              		.loc 1 204 0
 274 0052 1949     		ldr	r1, .L24+16
 275 0054 1448     		ldr	r0, .L24
 276 0056 FFF7FEFF 		bl	USART_GetITStatus
 277              	.LVL8:
 278 005a 18B3     		cbz	r0, .L19
 205:../user/source/stm32f37x_it.c ****     {
 206:../user/source/stm32f37x_it.c ****         USART_ClearITPendingBit(USART1, USART_IT_TXE);
 279              		.loc 1 206 0
 280 005c 124D     		ldr	r5, .L24
 281 005e 1649     		ldr	r1, .L24+16
 282 0060 2846     		mov	r0, r5
 283 0062 FFF7FEFF 		bl	USART_ClearITPendingBit
 284              	.LVL9:
 207:../user/source/stm32f37x_it.c ****         USART_SendData(USART1, (uint16_t)ucDrv_Buf_Uart1_Snd.ucBuf[ucDrv_Buf_Uart1_Snd.RD_Index]);
 285              		.loc 1 207 0
 286 0066 154C     		ldr	r4, .L24+20
 287 0068 B4F82E31 		ldrh	r3, [r4, #302]
 288 006c E15C     		ldrb	r1, [r4, r3]	@ zero_extendqisi2
 289 006e 2846     		mov	r0, r5
 290 0070 FFF7FEFF 		bl	USART_SendData
 291              	.LVL10:
 208:../user/source/stm32f37x_it.c ****         ucDrv_Buf_Uart1_Snd.RD_Index = (ucDrv_Buf_Uart1_Snd.RD_Index + 1) % DRV_BUF_SIZE;
 292              		.loc 1 208 0
 293 0074 B4F82E21 		ldrh	r2, [r4, #302]
 294 0078 0132     		adds	r2, r2, #1
 295 007a 0E4B     		ldr	r3, .L24+12
 296 007c 83FB0231 		smull	r3, r1, r3, r2
 297 0080 D317     		asrs	r3, r2, #31
 298 0082 C3EB6113 		rsb	r3, r3, r1, asr #5
 299 0086 4FF49671 		mov	r1, #300
 300 008a 01FB1323 		mls	r3, r1, r3, r2
 301 008e A4F82E31 		strh	r3, [r4, #302]	@ movhi
 209:../user/source/stm32f37x_it.c ****         if (blDrv_Buf_IsEmpty(&ucDrv_Buf_Uart1_Snd) == true)
 302              		.loc 1 209 0
 303 0092 2046     		mov	r0, r4
 304 0094 FFF7FEFF 		bl	blDrv_Buf_IsEmpty
 305              	.LVL11:
 306 0098 20B1     		cbz	r0, .L19
 210:../user/source/stm32f37x_it.c ****         {
 211:../user/source/stm32f37x_it.c ****             USART_ITConfig(USART1, USART_IT_TXE, DISABLE);
 307              		.loc 1 211 0
 308 009a 0022     		movs	r2, #0
 309 009c 0649     		ldr	r1, .L24+16
 310 009e 2846     		mov	r0, r5
 311 00a0 FFF7FEFF 		bl	USART_ITConfig
 312              	.LVL12:
 313              	.L19:
 314 00a4 38BD     		pop	{r3, r4, r5, pc}
 315              	.L25:
 316 00a6 00BF     		.align	2
 317              	.L24:
 318 00a8 00380140 		.word	1073821696
 319 00ac 05010500 		.word	327941
 320 00b0 00000000 		.word	ucDrv_Buf_Uart1_Rcv
 321 00b4 B5814E1B 		.word	458129845
ARM GAS  C:\Users\strag\AppData\Local\Temp\ccbM5IRc.s 			page 10


 322 00b8 07010700 		.word	459015
 323 00bc 00000000 		.word	ucDrv_Buf_Uart1_Snd
 324              		.cfi_endproc
 325              	.LFE120:
 327              		.section	.text.USART2_IRQHandler,"ax",%progbits
 328              		.align	2
 329              		.global	USART2_IRQHandler
 330              		.thumb
 331              		.thumb_func
 333              	USART2_IRQHandler:
 334              	.LFB121:
 212:../user/source/stm32f37x_it.c ****         }
 213:../user/source/stm32f37x_it.c ****     }
 214:../user/source/stm32f37x_it.c **** }
 215:../user/source/stm32f37x_it.c **** 
 216:../user/source/stm32f37x_it.c **** /********************************************************************
 217:../user/source/stm32f37x_it.c **** * 功    能：USART2_IRQHandler中断函数
 218:../user/source/stm32f37x_it.c ****             将串口数据读取到Uart2缓存结构体中的数组
 219:../user/source/stm32f37x_it.c **** * 输    入：None
 220:../user/source/stm32f37x_it.c **** * 输    出：None
 221:../user/source/stm32f37x_it.c **** *           
 222:../user/source/stm32f37x_it.c **** * 编 写 人：王君龙
 223:../user/source/stm32f37x_it.c **** * 编写日期：2018.4.17
 224:../user/source/stm32f37x_it.c **** **********************************************************************/
 225:../user/source/stm32f37x_it.c **** void USART2_IRQHandler(void)
 226:../user/source/stm32f37x_it.c **** {
 335              		.loc 1 226 0
 336              		.cfi_startproc
 337              		@ args = 0, pretend = 0, frame = 0
 338              		@ frame_needed = 0, uses_anonymous_args = 0
 339 0000 38B5     		push	{r3, r4, r5, lr}
 340              	.LCFI2:
 341              		.cfi_def_cfa_offset 16
 342              		.cfi_offset 3, -16
 343              		.cfi_offset 4, -12
 344              		.cfi_offset 5, -8
 345              		.cfi_offset 14, -4
 227:../user/source/stm32f37x_it.c **** #ifdef ENABLE_INFR
 228:../user/source/stm32f37x_it.c ****     if (USART_GetFlagStatus(USART2, USART_FLAG_ORE) == SET)
 346              		.loc 1 228 0
 347 0002 0821     		movs	r1, #8
 348 0004 3048     		ldr	r0, .L32
 349 0006 FFF7FEFF 		bl	USART_GetFlagStatus
 350              	.LVL13:
 351 000a 0128     		cmp	r0, #1
 352 000c 03D1     		bne	.L27
 229:../user/source/stm32f37x_it.c ****         USART_ClearFlag(USART2, USART_FLAG_ORE);
 353              		.loc 1 229 0
 354 000e 0821     		movs	r1, #8
 355 0010 2D48     		ldr	r0, .L32
 356 0012 FFF7FEFF 		bl	USART_ClearFlag
 357              	.LVL14:
 358              	.L27:
 230:../user/source/stm32f37x_it.c ****     if (USART_GetITStatus(USART2, USART_IT_RXNE) != RESET)
 359              		.loc 1 230 0
 360 0016 2D49     		ldr	r1, .L32+4
 361 0018 2B48     		ldr	r0, .L32
ARM GAS  C:\Users\strag\AppData\Local\Temp\ccbM5IRc.s 			page 11


 362 001a FFF7FEFF 		bl	USART_GetITStatus
 363              	.LVL15:
 364 001e E8B1     		cbz	r0, .L28
 231:../user/source/stm32f37x_it.c ****     {
 232:../user/source/stm32f37x_it.c ****         USART_ClearITPendingBit(USART2, USART_IT_RXNE);
 365              		.loc 1 232 0
 366 0020 2A49     		ldr	r1, .L32+4
 367 0022 2948     		ldr	r0, .L32
 368 0024 FFF7FEFF 		bl	USART_ClearITPendingBit
 369              	.LVL16:
 233:../user/source/stm32f37x_it.c ****         if (blDrv_Buf_IsFull(&ucDrv_Buf_Uart2_Rcv) != true) //if串口2接收缓存区不满
 370              		.loc 1 233 0
 371 0028 2948     		ldr	r0, .L32+8
 372 002a FFF7FEFF 		bl	blDrv_Buf_IsFull
 373              	.LVL17:
 374 002e A8B9     		cbnz	r0, .L28
 234:../user/source/stm32f37x_it.c ****         {
 235:../user/source/stm32f37x_it.c ****             ucDrv_Buf_Uart2_Rcv.ucBuf[ucDrv_Buf_Uart2_Rcv.WR_Index] = (uint8_t)USART_ReceiveData(US
 375              		.loc 1 235 0
 376 0030 274C     		ldr	r4, .L32+8
 377 0032 B4F82C51 		ldrh	r5, [r4, #300]
 378 0036 2448     		ldr	r0, .L32
 379 0038 FFF7FEFF 		bl	USART_ReceiveData
 380              	.LVL18:
 381 003c 6055     		strb	r0, [r4, r5]
 236:../user/source/stm32f37x_it.c ****             ucDrv_Buf_Uart2_Rcv.WR_Index = (ucDrv_Buf_Uart2_Rcv.WR_Index + 1) % DRV_BUF_SIZE;
 382              		.loc 1 236 0
 383 003e B4F82C21 		ldrh	r2, [r4, #300]
 384 0042 0132     		adds	r2, r2, #1
 385 0044 234B     		ldr	r3, .L32+12
 386 0046 83FB0231 		smull	r3, r1, r3, r2
 387 004a D317     		asrs	r3, r2, #31
 388 004c C3EB6113 		rsb	r3, r3, r1, asr #5
 389 0050 4FF49671 		mov	r1, #300
 390 0054 01FB1323 		mls	r3, r1, r3, r2
 391 0058 A4F82C31 		strh	r3, [r4, #300]	@ movhi
 392              	.L28:
 237:../user/source/stm32f37x_it.c ****         }
 238:../user/source/stm32f37x_it.c ****     };
 239:../user/source/stm32f37x_it.c ****     if (USART_GetITStatus(USART2, USART_IT_TXE) != RESET)
 393              		.loc 1 239 0
 394 005c 1E49     		ldr	r1, .L32+16
 395 005e 1A48     		ldr	r0, .L32
 396 0060 FFF7FEFF 		bl	USART_GetITStatus
 397              	.LVL19:
 398 0064 70B3     		cbz	r0, .L26
 240:../user/source/stm32f37x_it.c ****     {
 241:../user/source/stm32f37x_it.c ****         USART_ClearITPendingBit(USART2, USART_IT_TXE);
 399              		.loc 1 241 0
 400 0066 184D     		ldr	r5, .L32
 401 0068 1B49     		ldr	r1, .L32+16
 402 006a 2846     		mov	r0, r5
 403 006c FFF7FEFF 		bl	USART_ClearITPendingBit
 404              	.LVL20:
 242:../user/source/stm32f37x_it.c ****         USART_SendData(USART2, (uint16_t)ucDrv_Buf_Uart2_Snd.ucBuf[ucDrv_Buf_Uart2_Snd.RD_Index]);
 405              		.loc 1 242 0
 406 0070 1A4C     		ldr	r4, .L32+20
ARM GAS  C:\Users\strag\AppData\Local\Temp\ccbM5IRc.s 			page 12


 407 0072 B4F82E31 		ldrh	r3, [r4, #302]
 408 0076 E15C     		ldrb	r1, [r4, r3]	@ zero_extendqisi2
 409 0078 2846     		mov	r0, r5
 410 007a FFF7FEFF 		bl	USART_SendData
 411              	.LVL21:
 243:../user/source/stm32f37x_it.c ****         ucDrv_Buf_Uart2_Snd.RD_Index = (ucDrv_Buf_Uart2_Snd.RD_Index + 1) % DRV_BUF_SIZE;
 412              		.loc 1 243 0
 413 007e B4F82E21 		ldrh	r2, [r4, #302]
 414 0082 0132     		adds	r2, r2, #1
 415 0084 134B     		ldr	r3, .L32+12
 416 0086 83FB0231 		smull	r3, r1, r3, r2
 417 008a D317     		asrs	r3, r2, #31
 418 008c C3EB6113 		rsb	r3, r3, r1, asr #5
 419 0090 4FF49671 		mov	r1, #300
 420 0094 01FB1323 		mls	r3, r1, r3, r2
 421 0098 A4F82E31 		strh	r3, [r4, #302]	@ movhi
 244:../user/source/stm32f37x_it.c ****         if (blDrv_Buf_IsEmpty(&ucDrv_Buf_Uart2_Snd) == true)
 422              		.loc 1 244 0
 423 009c 2046     		mov	r0, r4
 424 009e FFF7FEFF 		bl	blDrv_Buf_IsEmpty
 425              	.LVL22:
 426 00a2 78B1     		cbz	r0, .L26
 245:../user/source/stm32f37x_it.c ****         {
 246:../user/source/stm32f37x_it.c ****             USART_ITConfig(USART2, USART_IT_TXE, DISABLE);
 427              		.loc 1 246 0
 428 00a4 0022     		movs	r2, #0
 429 00a6 0C49     		ldr	r1, .L32+16
 430 00a8 2846     		mov	r0, r5
 431 00aa FFF7FEFF 		bl	USART_ITConfig
 432              	.LVL23:
 433              	.L30:
 247:../user/source/stm32f37x_it.c ****             //TIM_CCxCmd(TIM5, TIM_Channel_2, TIM_CCx_Disable);
 248:../user/source/stm32f37x_it.c ****             while (RESET == USART_GetFlagStatus(USART2, USART_FLAG_TC))
 434              		.loc 1 248 0 discriminator 1
 435 00ae 4021     		movs	r1, #64
 436 00b0 0548     		ldr	r0, .L32
 437 00b2 FFF7FEFF 		bl	USART_GetFlagStatus
 438              	.LVL24:
 439 00b6 0028     		cmp	r0, #0
 440 00b8 F9D0     		beq	.L30
 249:../user/source/stm32f37x_it.c ****             {
 250:../user/source/stm32f37x_it.c ****             }
 251:../user/source/stm32f37x_it.c ****             USART_ITConfig(USART2, USART_IT_RXNE, ENABLE);
 441              		.loc 1 251 0
 442 00ba 0122     		movs	r2, #1
 443 00bc 0349     		ldr	r1, .L32+4
 444 00be 0248     		ldr	r0, .L32
 445 00c0 FFF7FEFF 		bl	USART_ITConfig
 446              	.LVL25:
 447              	.L26:
 448 00c4 38BD     		pop	{r3, r4, r5, pc}
 449              	.L33:
 450 00c6 00BF     		.align	2
 451              	.L32:
 452 00c8 00440040 		.word	1073759232
 453 00cc 05010500 		.word	327941
 454 00d0 00000000 		.word	ucDrv_Buf_Uart2_Rcv
ARM GAS  C:\Users\strag\AppData\Local\Temp\ccbM5IRc.s 			page 13


 455 00d4 B5814E1B 		.word	458129845
 456 00d8 07010700 		.word	459015
 457 00dc 00000000 		.word	ucDrv_Buf_Uart2_Snd
 458              		.cfi_endproc
 459              	.LFE121:
 461              		.section	.text.USART3_IRQHandler,"ax",%progbits
 462              		.align	2
 463              		.global	USART3_IRQHandler
 464              		.thumb
 465              		.thumb_func
 467              	USART3_IRQHandler:
 468              	.LFB122:
 252:../user/source/stm32f37x_it.c ****         }
 253:../user/source/stm32f37x_it.c ****     }
 254:../user/source/stm32f37x_it.c **** #endif
 255:../user/source/stm32f37x_it.c **** }
 256:../user/source/stm32f37x_it.c **** 
 257:../user/source/stm32f37x_it.c **** /********************************************************************
 258:../user/source/stm32f37x_it.c **** * 功    能：USART3_IRQHandler中断函数
 259:../user/source/stm32f37x_it.c ****             将串口数据读取到Uart3缓存结构体中的数组
 260:../user/source/stm32f37x_it.c **** * 输    入：None
 261:../user/source/stm32f37x_it.c **** * 输    出：None
 262:../user/source/stm32f37x_it.c **** *           
 263:../user/source/stm32f37x_it.c **** * 编 写 人：王君龙
 264:../user/source/stm32f37x_it.c **** * 编写日期：2016.6.23
 265:../user/source/stm32f37x_it.c **** **********************************************************************/
 266:../user/source/stm32f37x_it.c **** void USART3_IRQHandler(void)
 267:../user/source/stm32f37x_it.c **** {
 469              		.loc 1 267 0
 470              		.cfi_startproc
 471              		@ args = 0, pretend = 0, frame = 0
 472              		@ frame_needed = 0, uses_anonymous_args = 0
 473 0000 38B5     		push	{r3, r4, r5, lr}
 474              	.LCFI3:
 475              		.cfi_def_cfa_offset 16
 476              		.cfi_offset 3, -16
 477              		.cfi_offset 4, -12
 478              		.cfi_offset 5, -8
 479              		.cfi_offset 14, -4
 268:../user/source/stm32f37x_it.c ****     if (USART_GetFlagStatus(USART3, USART_FLAG_ORE))
 480              		.loc 1 268 0
 481 0002 0821     		movs	r1, #8
 482 0004 2548     		ldr	r0, .L39
 483 0006 FFF7FEFF 		bl	USART_GetFlagStatus
 484              	.LVL26:
 485 000a 18B1     		cbz	r0, .L35
 269:../user/source/stm32f37x_it.c ****     {
 270:../user/source/stm32f37x_it.c ****         USART_ClearFlag(USART3, USART_FLAG_ORE);
 486              		.loc 1 270 0
 487 000c 0821     		movs	r1, #8
 488 000e 2348     		ldr	r0, .L39
 489 0010 FFF7FEFF 		bl	USART_ClearFlag
 490              	.LVL27:
 491              	.L35:
 271:../user/source/stm32f37x_it.c ****     }
 272:../user/source/stm32f37x_it.c ****     if (RESET != USART_GetITStatus(USART3, USART_IT_RXNE)) //读一个字节入串口3接收缓存
 492              		.loc 1 272 0
ARM GAS  C:\Users\strag\AppData\Local\Temp\ccbM5IRc.s 			page 14


 493 0014 2249     		ldr	r1, .L39+4
 494 0016 2148     		ldr	r0, .L39
 495 0018 FFF7FEFF 		bl	USART_GetITStatus
 496              	.LVL28:
 497 001c C8B1     		cbz	r0, .L36
 273:../user/source/stm32f37x_it.c ****     {
 274:../user/source/stm32f37x_it.c ****         if (blDrv_Buf_IsFull(&ucDrv_Buf_Uart3_Rcv) != true) //if串口3接收缓存区不满
 498              		.loc 1 274 0
 499 001e 2148     		ldr	r0, .L39+8
 500 0020 FFF7FEFF 		bl	blDrv_Buf_IsFull
 501              	.LVL29:
 502 0024 A8B9     		cbnz	r0, .L36
 275:../user/source/stm32f37x_it.c ****         {
 276:../user/source/stm32f37x_it.c ****             ucDrv_Buf_Uart3_Rcv.ucBuf[ucDrv_Buf_Uart3_Rcv.WR_Index] = (uint8_t)USART_ReceiveData(US
 503              		.loc 1 276 0
 504 0026 1F4C     		ldr	r4, .L39+8
 505 0028 B4F82C51 		ldrh	r5, [r4, #300]
 506 002c 1B48     		ldr	r0, .L39
 507 002e FFF7FEFF 		bl	USART_ReceiveData
 508              	.LVL30:
 509 0032 6055     		strb	r0, [r4, r5]
 277:../user/source/stm32f37x_it.c ****             ucDrv_Buf_Uart3_Rcv.WR_Index = (ucDrv_Buf_Uart3_Rcv.WR_Index + 1) % DRV_BUF_SIZE;
 510              		.loc 1 277 0
 511 0034 B4F82C21 		ldrh	r2, [r4, #300]
 512 0038 0132     		adds	r2, r2, #1
 513 003a 1B4B     		ldr	r3, .L39+12
 514 003c 83FB0231 		smull	r3, r1, r3, r2
 515 0040 D317     		asrs	r3, r2, #31
 516 0042 C3EB6113 		rsb	r3, r3, r1, asr #5
 517 0046 4FF49671 		mov	r1, #300
 518 004a 01FB1323 		mls	r3, r1, r3, r2
 519 004e A4F82C31 		strh	r3, [r4, #300]	@ movhi
 520              	.L36:
 278:../user/source/stm32f37x_it.c ****         }
 279:../user/source/stm32f37x_it.c ****     }
 280:../user/source/stm32f37x_it.c ****     if (USART_GetITStatus(USART3, USART_IT_TXE) != RESET)
 521              		.loc 1 280 0
 522 0052 1649     		ldr	r1, .L39+16
 523 0054 1148     		ldr	r0, .L39
 524 0056 FFF7FEFF 		bl	USART_GetITStatus
 525              	.LVL31:
 526 005a F0B1     		cbz	r0, .L34
 281:../user/source/stm32f37x_it.c ****     {
 282:../user/source/stm32f37x_it.c ****         //USART_ClearITPendingBit(USART3,USART_IT_TXE);
 283:../user/source/stm32f37x_it.c ****         USART_SendData(USART3, (uint16_t)ucDrv_Buf_Uart3_Snd.ucBuf[ucDrv_Buf_Uart3_Snd.RD_Index]);
 527              		.loc 1 283 0
 528 005c 144C     		ldr	r4, .L39+20
 529 005e B4F82E31 		ldrh	r3, [r4, #302]
 530 0062 E15C     		ldrb	r1, [r4, r3]	@ zero_extendqisi2
 531 0064 0D48     		ldr	r0, .L39
 532 0066 FFF7FEFF 		bl	USART_SendData
 533              	.LVL32:
 284:../user/source/stm32f37x_it.c ****         ucDrv_Buf_Uart3_Snd.RD_Index = (ucDrv_Buf_Uart3_Snd.RD_Index + 1) % DRV_BUF_SIZE;
 534              		.loc 1 284 0
 535 006a B4F82E21 		ldrh	r2, [r4, #302]
 536 006e 0132     		adds	r2, r2, #1
 537 0070 0D4B     		ldr	r3, .L39+12
ARM GAS  C:\Users\strag\AppData\Local\Temp\ccbM5IRc.s 			page 15


 538 0072 83FB0231 		smull	r3, r1, r3, r2
 539 0076 D317     		asrs	r3, r2, #31
 540 0078 C3EB6113 		rsb	r3, r3, r1, asr #5
 541 007c 4FF49671 		mov	r1, #300
 542 0080 01FB1323 		mls	r3, r1, r3, r2
 543 0084 A4F82E31 		strh	r3, [r4, #302]	@ movhi
 285:../user/source/stm32f37x_it.c ****         if (blDrv_Buf_IsEmpty(&ucDrv_Buf_Uart3_Snd) == true)
 544              		.loc 1 285 0
 545 0088 2046     		mov	r0, r4
 546 008a FFF7FEFF 		bl	blDrv_Buf_IsEmpty
 547              	.LVL33:
 548 008e 20B1     		cbz	r0, .L34
 286:../user/source/stm32f37x_it.c ****             USART_ITConfig(USART3, USART_IT_TXE, DISABLE);
 549              		.loc 1 286 0
 550 0090 0022     		movs	r2, #0
 551 0092 0649     		ldr	r1, .L39+16
 552 0094 0148     		ldr	r0, .L39
 553 0096 FFF7FEFF 		bl	USART_ITConfig
 554              	.LVL34:
 555              	.L34:
 556 009a 38BD     		pop	{r3, r4, r5, pc}
 557              	.L40:
 558              		.align	2
 559              	.L39:
 560 009c 00480040 		.word	1073760256
 561 00a0 05010500 		.word	327941
 562 00a4 00000000 		.word	ucDrv_Buf_Uart3_Rcv
 563 00a8 B5814E1B 		.word	458129845
 564 00ac 07010700 		.word	459015
 565 00b0 00000000 		.word	ucDrv_Buf_Uart3_Snd
 566              		.cfi_endproc
 567              	.LFE122:
 569              		.section	.text.TIM2_IRQHandler,"ax",%progbits
 570              		.align	2
 571              		.global	TIM2_IRQHandler
 572              		.thumb
 573              		.thumb_func
 575              	TIM2_IRQHandler:
 576              	.LFB123:
 287:../user/source/stm32f37x_it.c ****     }
 288:../user/source/stm32f37x_it.c **** }
 289:../user/source/stm32f37x_it.c **** 
 290:../user/source/stm32f37x_it.c **** /********************************************************************
 291:../user/source/stm32f37x_it.c **** * 功    能：TIM2_IRQHandler断函数
 292:../user/source/stm32f37x_it.c ****             计时累加
 293:../user/source/stm32f37x_it.c **** * 输    入：None
 294:../user/source/stm32f37x_it.c **** * 输    出：None
 295:../user/source/stm32f37x_it.c **** *           
 296:../user/source/stm32f37x_it.c **** * 编 写 人：王君龙
 297:../user/source/stm32f37x_it.c **** * 编写日期：2016.6.23
 298:../user/source/stm32f37x_it.c **** **********************************************************************/
 299:../user/source/stm32f37x_it.c **** void TIM2_IRQHandler(void)
 300:../user/source/stm32f37x_it.c **** {
 577              		.loc 1 300 0
 578              		.cfi_startproc
 579              		@ args = 0, pretend = 0, frame = 0
 580              		@ frame_needed = 0, uses_anonymous_args = 0
ARM GAS  C:\Users\strag\AppData\Local\Temp\ccbM5IRc.s 			page 16


 581 0000 08B5     		push	{r3, lr}
 582              	.LCFI4:
 583              		.cfi_def_cfa_offset 8
 584              		.cfi_offset 3, -8
 585              		.cfi_offset 14, -4
 301:../user/source/stm32f37x_it.c ****     if (TIM_GetITStatus(TIM2, TIM_IT_Update) != RESET)
 586              		.loc 1 301 0
 587 0002 0121     		movs	r1, #1
 588 0004 4FF08040 		mov	r0, #1073741824
 589 0008 FFF7FEFF 		bl	TIM_GetITStatus
 590              	.LVL35:
 591 000c 90B1     		cbz	r0, .L41
 302:../user/source/stm32f37x_it.c ****     {
 303:../user/source/stm32f37x_it.c ****         TIM_ClearITPendingBit(TIM2, TIM_IT_Update);
 592              		.loc 1 303 0
 593 000e 0121     		movs	r1, #1
 594 0010 4FF08040 		mov	r0, #1073741824
 595 0014 FFF7FEFF 		bl	TIM_ClearITPendingBit
 596              	.LVL36:
 304:../user/source/stm32f37x_it.c ****         if (blWordsCounterStatus == true)
 597              		.loc 1 304 0
 598 0018 074B     		ldr	r3, .L45
 599 001a 1B78     		ldrb	r3, [r3]	@ zero_extendqisi2
 600 001c 1BB1     		cbz	r3, .L43
 305:../user/source/stm32f37x_it.c ****         {
 306:../user/source/stm32f37x_it.c ****             uwTime2WordsCounter++;
 601              		.loc 1 306 0
 602 001e 074A     		ldr	r2, .L45+4
 603 0020 1388     		ldrh	r3, [r2]
 604 0022 0133     		adds	r3, r3, #1
 605 0024 1380     		strh	r3, [r2]	@ movhi
 606              	.L43:
 307:../user/source/stm32f37x_it.c ****         }
 308:../user/source/stm32f37x_it.c ****         if (blFramesCounterStatus == true)
 607              		.loc 1 308 0
 608 0026 064B     		ldr	r3, .L45+8
 609 0028 1B78     		ldrb	r3, [r3]	@ zero_extendqisi2
 610 002a 1BB1     		cbz	r3, .L41
 309:../user/source/stm32f37x_it.c ****         {
 310:../user/source/stm32f37x_it.c ****             uwTime2FramesCounter++;
 611              		.loc 1 310 0
 612 002c 054A     		ldr	r2, .L45+12
 613 002e 1388     		ldrh	r3, [r2]
 614 0030 0133     		adds	r3, r3, #1
 615 0032 1380     		strh	r3, [r2]	@ movhi
 616              	.L41:
 617 0034 08BD     		pop	{r3, pc}
 618              	.L46:
 619 0036 00BF     		.align	2
 620              	.L45:
 621 0038 00000000 		.word	blWordsCounterStatus
 622 003c 00000000 		.word	uwTime2WordsCounter
 623 0040 00000000 		.word	blFramesCounterStatus
 624 0044 00000000 		.word	uwTime2FramesCounter
 625              		.cfi_endproc
 626              	.LFE123:
 628              		.section	.text.TIM5_IRQHandler,"ax",%progbits
ARM GAS  C:\Users\strag\AppData\Local\Temp\ccbM5IRc.s 			page 17


 629              		.align	2
 630              		.global	TIM5_IRQHandler
 631              		.thumb
 632              		.thumb_func
 634              	TIM5_IRQHandler:
 635              	.LFB124:
 311:../user/source/stm32f37x_it.c ****         }
 312:../user/source/stm32f37x_it.c ****     }
 313:../user/source/stm32f37x_it.c **** }
 314:../user/source/stm32f37x_it.c **** 
 315:../user/source/stm32f37x_it.c **** /********************************************************************
 316:../user/source/stm32f37x_it.c **** * 功    能：TIM5_IRQHandler断函数
 317:../user/source/stm32f37x_it.c **** 				PWM输出
 318:../user/source/stm32f37x_it.c **** * 输    入：None
 319:../user/source/stm32f37x_it.c **** * 输    出：None
 320:../user/source/stm32f37x_it.c **** *
 321:../user/source/stm32f37x_it.c **** * 编 写 人：王君龙
 322:../user/source/stm32f37x_it.c **** * 编写日期：2017.9.11
 323:../user/source/stm32f37x_it.c **** **********************************************************************/
 324:../user/source/stm32f37x_it.c **** void TIM5_IRQHandler(void)
 325:../user/source/stm32f37x_it.c **** {
 636              		.loc 1 325 0
 637              		.cfi_startproc
 638              		@ args = 0, pretend = 0, frame = 0
 639              		@ frame_needed = 0, uses_anonymous_args = 0
 640              		@ link register save eliminated.
 641 0000 7047     		bx	lr
 642              		.cfi_endproc
 643              	.LFE124:
 645              		.global	capture
 646 0002 00BF     		.section	.bss.capture,"aw",%nobits
 647              		.align	1
 650              	capture:
 651 0000 0000     		.space	2
 652              		.text
 653              	.Letext0:
 654              		.file 2 "d:\\gcc-arm-none-eabi-5_4-2016q3-20160926-win32\\arm-none-eabi\\include\\machine\\_defaul
 655              		.file 3 "d:\\gcc-arm-none-eabi-5_4-2016q3-20160926-win32\\arm-none-eabi\\include\\sys\\_stdint.h"
 656              		.file 4 "../cmsis/include/stm32f37x.h"
 657              		.file 5 "../stdperiph/include/stm32f37x_gpio.h"
 658              		.file 6 "../user/include/Uart.h"
 659              		.file 7 "../cmsis/include/core_cm4.h"
 660              		.file 8 "../user/include/Time.h"
 661              		.file 9 "../stdperiph/include/stm32f37x_usart.h"
 662              		.file 10 "../stdperiph/include/stm32f37x_tim.h"
ARM GAS  C:\Users\strag\AppData\Local\Temp\ccbM5IRc.s 			page 18


DEFINED SYMBOLS
                            *ABS*:00000000 stm32f37x_it.c
C:\Users\strag\AppData\Local\Temp\ccbM5IRc.s:22     .text.NMI_Handler:00000000 $t
C:\Users\strag\AppData\Local\Temp\ccbM5IRc.s:27     .text.NMI_Handler:00000000 NMI_Handler
C:\Users\strag\AppData\Local\Temp\ccbM5IRc.s:40     .text.HardFault_Handler:00000000 $t
C:\Users\strag\AppData\Local\Temp\ccbM5IRc.s:45     .text.HardFault_Handler:00000000 HardFault_Handler
C:\Users\strag\AppData\Local\Temp\ccbM5IRc.s:59     .text.MemManage_Handler:00000000 $t
C:\Users\strag\AppData\Local\Temp\ccbM5IRc.s:64     .text.MemManage_Handler:00000000 MemManage_Handler
C:\Users\strag\AppData\Local\Temp\ccbM5IRc.s:78     .text.BusFault_Handler:00000000 $t
C:\Users\strag\AppData\Local\Temp\ccbM5IRc.s:83     .text.BusFault_Handler:00000000 BusFault_Handler
C:\Users\strag\AppData\Local\Temp\ccbM5IRc.s:97     .text.UsageFault_Handler:00000000 $t
C:\Users\strag\AppData\Local\Temp\ccbM5IRc.s:102    .text.UsageFault_Handler:00000000 UsageFault_Handler
C:\Users\strag\AppData\Local\Temp\ccbM5IRc.s:116    .text.SVC_Handler:00000000 $t
C:\Users\strag\AppData\Local\Temp\ccbM5IRc.s:121    .text.SVC_Handler:00000000 SVC_Handler
C:\Users\strag\AppData\Local\Temp\ccbM5IRc.s:133    .text.DebugMon_Handler:00000000 $t
C:\Users\strag\AppData\Local\Temp\ccbM5IRc.s:138    .text.DebugMon_Handler:00000000 DebugMon_Handler
C:\Users\strag\AppData\Local\Temp\ccbM5IRc.s:150    .text.PendSV_Handler:00000000 $t
C:\Users\strag\AppData\Local\Temp\ccbM5IRc.s:155    .text.PendSV_Handler:00000000 PendSV_Handler
C:\Users\strag\AppData\Local\Temp\ccbM5IRc.s:167    .text.SysTick_Handler:00000000 $t
C:\Users\strag\AppData\Local\Temp\ccbM5IRc.s:172    .text.SysTick_Handler:00000000 SysTick_Handler
C:\Users\strag\AppData\Local\Temp\ccbM5IRc.s:209    .text.SysTick_Handler:0000002c $d
C:\Users\strag\AppData\Local\Temp\ccbM5IRc.s:214    .text.USART1_IRQHandler:00000000 $t
C:\Users\strag\AppData\Local\Temp\ccbM5IRc.s:219    .text.USART1_IRQHandler:00000000 USART1_IRQHandler
C:\Users\strag\AppData\Local\Temp\ccbM5IRc.s:318    .text.USART1_IRQHandler:000000a8 $d
C:\Users\strag\AppData\Local\Temp\ccbM5IRc.s:328    .text.USART2_IRQHandler:00000000 $t
C:\Users\strag\AppData\Local\Temp\ccbM5IRc.s:333    .text.USART2_IRQHandler:00000000 USART2_IRQHandler
C:\Users\strag\AppData\Local\Temp\ccbM5IRc.s:452    .text.USART2_IRQHandler:000000c8 $d
C:\Users\strag\AppData\Local\Temp\ccbM5IRc.s:462    .text.USART3_IRQHandler:00000000 $t
C:\Users\strag\AppData\Local\Temp\ccbM5IRc.s:467    .text.USART3_IRQHandler:00000000 USART3_IRQHandler
C:\Users\strag\AppData\Local\Temp\ccbM5IRc.s:560    .text.USART3_IRQHandler:0000009c $d
C:\Users\strag\AppData\Local\Temp\ccbM5IRc.s:570    .text.TIM2_IRQHandler:00000000 $t
C:\Users\strag\AppData\Local\Temp\ccbM5IRc.s:575    .text.TIM2_IRQHandler:00000000 TIM2_IRQHandler
C:\Users\strag\AppData\Local\Temp\ccbM5IRc.s:621    .text.TIM2_IRQHandler:00000038 $d
C:\Users\strag\AppData\Local\Temp\ccbM5IRc.s:629    .text.TIM5_IRQHandler:00000000 $t
C:\Users\strag\AppData\Local\Temp\ccbM5IRc.s:634    .text.TIM5_IRQHandler:00000000 TIM5_IRQHandler
C:\Users\strag\AppData\Local\Temp\ccbM5IRc.s:650    .bss.capture:00000000 capture
C:\Users\strag\AppData\Local\Temp\ccbM5IRc.s:647    .bss.capture:00000000 $d
                     .debug_frame:00000010 $d

UNDEFINED SYMBOLS
GPIO_ReadOutputDataBit
GPIO_WriteBit
USART_GetFlagStatus
USART_ClearFlag
USART_GetITStatus
blDrv_Buf_IsFull
USART_ReceiveData
USART_ClearITPendingBit
USART_SendData
blDrv_Buf_IsEmpty
USART_ITConfig
ucDrv_Buf_Uart1_Rcv
ucDrv_Buf_Uart1_Snd
ucDrv_Buf_Uart2_Rcv
ucDrv_Buf_Uart2_Snd
ucDrv_Buf_Uart3_Rcv
ucDrv_Buf_Uart3_Snd
ARM GAS  C:\Users\strag\AppData\Local\Temp\ccbM5IRc.s 			page 19


TIM_GetITStatus
TIM_ClearITPendingBit
blWordsCounterStatus
uwTime2WordsCounter
blFramesCounterStatus
uwTime2FramesCounter
