ARM GAS  C:\Users\strag\AppData\Local\Temp\ccY4seqg.s 			page 1


   1              		.syntax unified
   2              		.cpu cortex-m4
   3              		.eabi_attribute 27, 1
   4              		.eabi_attribute 28, 1
   5              		.fpu fpv4-sp-d16
   6              		.eabi_attribute 20, 1
   7              		.eabi_attribute 21, 1
   8              		.eabi_attribute 23, 3
   9              		.eabi_attribute 24, 1
  10              		.eabi_attribute 25, 1
  11              		.eabi_attribute 26, 1
  12              		.eabi_attribute 30, 1
  13              		.eabi_attribute 34, 1
  14              		.eabi_attribute 18, 4
  15              		.thumb
  16              		.syntax unified
  17              		.file	"stm32f37x_it.c"
  18              		.text
  19              	.Ltext0:
  20              		.cfi_sections	.debug_frame
  21              		.section	.text.NMI_Handler,"ax",%progbits
  22              		.align	2
  23              		.global	NMI_Handler
  24              		.thumb
  25              		.thumb_func
  27              	NMI_Handler:
  28              	.LFB111:
  29              		.file 1 "../user/source/stm32f37x_it.c"
   1:../user/source/stm32f37x_it.c **** /**
   2:../user/source/stm32f37x_it.c ****   ******************************************************************************
   3:../user/source/stm32f37x_it.c ****   * @file    Project/STM32F37x_StdPeriph_Templates/stm32f37x_it.c 
   4:../user/source/stm32f37x_it.c ****   * @author  MCD Application Team
   5:../user/source/stm32f37x_it.c ****   * @version V1.0.0
   6:../user/source/stm32f37x_it.c ****   * @date    20-September-2012
   7:../user/source/stm32f37x_it.c ****   * @brief   Main Interrupt Service Routines.
   8:../user/source/stm32f37x_it.c ****   *          This file provides template for all exceptions handler and 
   9:../user/source/stm32f37x_it.c ****   *          peripherals interrupt service routine.
  10:../user/source/stm32f37x_it.c ****   ******************************************************************************
  11:../user/source/stm32f37x_it.c ****   * @attention
  12:../user/source/stm32f37x_it.c ****   *
  13:../user/source/stm32f37x_it.c ****   * <h2><center>&copy; COPYRIGHT 2012 STMicroelectronics</center></h2>
  14:../user/source/stm32f37x_it.c ****   *
  15:../user/source/stm32f37x_it.c ****   * Licensed under MCD-ST Liberty SW License Agreement V2, (the "License");
  16:../user/source/stm32f37x_it.c ****   * You may not use this file except in compliance with the License.
  17:../user/source/stm32f37x_it.c ****   * You may obtain a copy of the License at:
  18:../user/source/stm32f37x_it.c ****   *
  19:../user/source/stm32f37x_it.c ****   *        http://www.st.com/software_license_agreement_liberty_v2
  20:../user/source/stm32f37x_it.c ****   *
  21:../user/source/stm32f37x_it.c ****   * Unless required by applicable law or agreed to in writing, software 
  22:../user/source/stm32f37x_it.c ****   * distributed under the License is distributed on an "AS IS" BASIS, 
  23:../user/source/stm32f37x_it.c ****   * WITHOUT WARRANTIES OR CONDITIONS OF ANY KIND, either express or implied.
  24:../user/source/stm32f37x_it.c ****   * See the License for the specific language governing permissions and
  25:../user/source/stm32f37x_it.c ****   * limitations under the License.
  26:../user/source/stm32f37x_it.c ****   *
  27:../user/source/stm32f37x_it.c ****   ******************************************************************************
  28:../user/source/stm32f37x_it.c ****   */
  29:../user/source/stm32f37x_it.c **** 
ARM GAS  C:\Users\strag\AppData\Local\Temp\ccY4seqg.s 			page 2


  30:../user/source/stm32f37x_it.c **** /* Includes ------------------------------------------------------------------*/
  31:../user/source/stm32f37x_it.c **** //#include "stdlib.h"
  32:../user/source/stm32f37x_it.c **** #include "stm32f37x_it.h"
  33:../user/source/stm32f37x_it.c **** #include "main.h"
  34:../user/source/stm32f37x_it.c **** #include "Uart.h"
  35:../user/source/stm32f37x_it.c **** #include "Time.h"
  36:../user/source/stm32f37x_it.c **** 
  37:../user/source/stm32f37x_it.c **** uint16_t capture = 0;
  38:../user/source/stm32f37x_it.c **** /** @addtogroup Template_Project
  39:../user/source/stm32f37x_it.c ****   * @{
  40:../user/source/stm32f37x_it.c ****   */
  41:../user/source/stm32f37x_it.c **** 
  42:../user/source/stm32f37x_it.c **** /* Private typedef -----------------------------------------------------------*/
  43:../user/source/stm32f37x_it.c **** /* Private define ------------------------------------------------------------*/
  44:../user/source/stm32f37x_it.c **** /* Private macro -------------------------------------------------------------*/
  45:../user/source/stm32f37x_it.c **** /* Private variables ---------------------------------------------------------*/
  46:../user/source/stm32f37x_it.c **** /* Private function prototypes -----------------------------------------------*/
  47:../user/source/stm32f37x_it.c **** /* Private functions ---------------------------------------------------------*/
  48:../user/source/stm32f37x_it.c **** 
  49:../user/source/stm32f37x_it.c **** /******************************************************************************/
  50:../user/source/stm32f37x_it.c **** /*            Cortex-M4 Processor Exceptions Handlers                         */
  51:../user/source/stm32f37x_it.c **** /******************************************************************************/
  52:../user/source/stm32f37x_it.c **** 
  53:../user/source/stm32f37x_it.c **** /**
  54:../user/source/stm32f37x_it.c ****   * @brief  This function handles NMI exception.
  55:../user/source/stm32f37x_it.c ****   * @param  None
  56:../user/source/stm32f37x_it.c ****   * @retval None
  57:../user/source/stm32f37x_it.c ****   */
  58:../user/source/stm32f37x_it.c **** void NMI_Handler(void)
  59:../user/source/stm32f37x_it.c **** {
  30              		.loc 1 59 0
  31              		.cfi_startproc
  32              		@ args = 0, pretend = 0, frame = 0
  33              		@ frame_needed = 0, uses_anonymous_args = 0
  34              		@ link register save eliminated.
  35 0000 7047     		bx	lr
  36              		.cfi_endproc
  37              	.LFE111:
  39 0002 00BF     		.section	.text.HardFault_Handler,"ax",%progbits
  40              		.align	2
  41              		.global	HardFault_Handler
  42              		.thumb
  43              		.thumb_func
  45              	HardFault_Handler:
  46              	.LFB112:
  60:../user/source/stm32f37x_it.c **** }
  61:../user/source/stm32f37x_it.c **** 
  62:../user/source/stm32f37x_it.c **** /**
  63:../user/source/stm32f37x_it.c ****   * @brief  This function handles Hard Fault exception.
  64:../user/source/stm32f37x_it.c ****   * @param  None
  65:../user/source/stm32f37x_it.c ****   * @retval None
  66:../user/source/stm32f37x_it.c ****   */
  67:../user/source/stm32f37x_it.c **** void HardFault_Handler(void)
  68:../user/source/stm32f37x_it.c **** {
  47              		.loc 1 68 0
  48              		.cfi_startproc
  49              		@ Volatile: function does not return.
ARM GAS  C:\Users\strag\AppData\Local\Temp\ccY4seqg.s 			page 3


  50              		@ args = 0, pretend = 0, frame = 0
  51              		@ frame_needed = 0, uses_anonymous_args = 0
  52              		@ link register save eliminated.
  53              	.L3:
  54 0000 FEE7     		b	.L3
  55              		.cfi_endproc
  56              	.LFE112:
  58 0002 00BF     		.section	.text.MemManage_Handler,"ax",%progbits
  59              		.align	2
  60              		.global	MemManage_Handler
  61              		.thumb
  62              		.thumb_func
  64              	MemManage_Handler:
  65              	.LFB113:
  69:../user/source/stm32f37x_it.c ****     //	if (CoreDebug->DHCSR & 1) {  //check C_DEBUGEN == 1 -> Debugger Connected
  70:../user/source/stm32f37x_it.c ****     //      __breakpoint(0);  // halt program execution here
  71:../user/source/stm32f37x_it.c ****     //  }
  72:../user/source/stm32f37x_it.c **** 
  73:../user/source/stm32f37x_it.c ****     /* Go to infinite loop when Hard Fault exception occurs */
  74:../user/source/stm32f37x_it.c ****     while (1)
  75:../user/source/stm32f37x_it.c ****     {
  76:../user/source/stm32f37x_it.c ****     }
  77:../user/source/stm32f37x_it.c **** }
  78:../user/source/stm32f37x_it.c **** 
  79:../user/source/stm32f37x_it.c **** /**
  80:../user/source/stm32f37x_it.c ****   * @brief  This function handles Memory Manage exception.
  81:../user/source/stm32f37x_it.c ****   * @param  None
  82:../user/source/stm32f37x_it.c ****   * @retval None
  83:../user/source/stm32f37x_it.c ****   */
  84:../user/source/stm32f37x_it.c **** void MemManage_Handler(void)
  85:../user/source/stm32f37x_it.c **** {
  66              		.loc 1 85 0
  67              		.cfi_startproc
  68              		@ Volatile: function does not return.
  69              		@ args = 0, pretend = 0, frame = 0
  70              		@ frame_needed = 0, uses_anonymous_args = 0
  71              		@ link register save eliminated.
  72              	.L5:
  73 0000 FEE7     		b	.L5
  74              		.cfi_endproc
  75              	.LFE113:
  77 0002 00BF     		.section	.text.BusFault_Handler,"ax",%progbits
  78              		.align	2
  79              		.global	BusFault_Handler
  80              		.thumb
  81              		.thumb_func
  83              	BusFault_Handler:
  84              	.LFB114:
  86:../user/source/stm32f37x_it.c ****     /* Go to infinite loop when Memory Manage exception occurs */
  87:../user/source/stm32f37x_it.c ****     while (1)
  88:../user/source/stm32f37x_it.c ****     {
  89:../user/source/stm32f37x_it.c ****     }
  90:../user/source/stm32f37x_it.c **** }
  91:../user/source/stm32f37x_it.c **** 
  92:../user/source/stm32f37x_it.c **** /**
  93:../user/source/stm32f37x_it.c ****   * @brief  This function handles Bus Fault exception.
  94:../user/source/stm32f37x_it.c ****   * @param  None
ARM GAS  C:\Users\strag\AppData\Local\Temp\ccY4seqg.s 			page 4


  95:../user/source/stm32f37x_it.c ****   * @retval None
  96:../user/source/stm32f37x_it.c ****   */
  97:../user/source/stm32f37x_it.c **** void BusFault_Handler(void)
  98:../user/source/stm32f37x_it.c **** {
  85              		.loc 1 98 0
  86              		.cfi_startproc
  87              		@ Volatile: function does not return.
  88              		@ args = 0, pretend = 0, frame = 0
  89              		@ frame_needed = 0, uses_anonymous_args = 0
  90              		@ link register save eliminated.
  91              	.L7:
  92 0000 FEE7     		b	.L7
  93              		.cfi_endproc
  94              	.LFE114:
  96 0002 00BF     		.section	.text.UsageFault_Handler,"ax",%progbits
  97              		.align	2
  98              		.global	UsageFault_Handler
  99              		.thumb
 100              		.thumb_func
 102              	UsageFault_Handler:
 103              	.LFB115:
  99:../user/source/stm32f37x_it.c ****     /* Go to infinite loop when Bus Fault exception occurs */
 100:../user/source/stm32f37x_it.c ****     while (1)
 101:../user/source/stm32f37x_it.c ****     {
 102:../user/source/stm32f37x_it.c ****     }
 103:../user/source/stm32f37x_it.c **** }
 104:../user/source/stm32f37x_it.c **** 
 105:../user/source/stm32f37x_it.c **** /**
 106:../user/source/stm32f37x_it.c ****   * @brief  This function handles Usage Fault exception.
 107:../user/source/stm32f37x_it.c ****   * @param  None
 108:../user/source/stm32f37x_it.c ****   * @retval None
 109:../user/source/stm32f37x_it.c ****   */
 110:../user/source/stm32f37x_it.c **** void UsageFault_Handler(void)
 111:../user/source/stm32f37x_it.c **** {
 104              		.loc 1 111 0
 105              		.cfi_startproc
 106              		@ Volatile: function does not return.
 107              		@ args = 0, pretend = 0, frame = 0
 108              		@ frame_needed = 0, uses_anonymous_args = 0
 109              		@ link register save eliminated.
 110              	.L9:
 111 0000 FEE7     		b	.L9
 112              		.cfi_endproc
 113              	.LFE115:
 115 0002 00BF     		.section	.text.SVC_Handler,"ax",%progbits
 116              		.align	2
 117              		.global	SVC_Handler
 118              		.thumb
 119              		.thumb_func
 121              	SVC_Handler:
 122              	.LFB116:
 112:../user/source/stm32f37x_it.c ****     /* Go to infinite loop when Usage Fault exception occurs */
 113:../user/source/stm32f37x_it.c ****     while (1)
 114:../user/source/stm32f37x_it.c ****     {
 115:../user/source/stm32f37x_it.c ****     }
 116:../user/source/stm32f37x_it.c **** }
 117:../user/source/stm32f37x_it.c **** 
ARM GAS  C:\Users\strag\AppData\Local\Temp\ccY4seqg.s 			page 5


 118:../user/source/stm32f37x_it.c **** /**
 119:../user/source/stm32f37x_it.c ****   * @brief  This function handles SVCall exception.
 120:../user/source/stm32f37x_it.c ****   * @param  None
 121:../user/source/stm32f37x_it.c ****   * @retval None
 122:../user/source/stm32f37x_it.c ****   */
 123:../user/source/stm32f37x_it.c **** void SVC_Handler(void)
 124:../user/source/stm32f37x_it.c **** {
 123              		.loc 1 124 0
 124              		.cfi_startproc
 125              		@ args = 0, pretend = 0, frame = 0
 126              		@ frame_needed = 0, uses_anonymous_args = 0
 127              		@ link register save eliminated.
 128 0000 7047     		bx	lr
 129              		.cfi_endproc
 130              	.LFE116:
 132 0002 00BF     		.section	.text.DebugMon_Handler,"ax",%progbits
 133              		.align	2
 134              		.global	DebugMon_Handler
 135              		.thumb
 136              		.thumb_func
 138              	DebugMon_Handler:
 139              	.LFB117:
 125:../user/source/stm32f37x_it.c **** }
 126:../user/source/stm32f37x_it.c **** 
 127:../user/source/stm32f37x_it.c **** /**
 128:../user/source/stm32f37x_it.c ****   * @brief  This function handles Debug Monitor exception.
 129:../user/source/stm32f37x_it.c ****   * @param  None
 130:../user/source/stm32f37x_it.c ****   * @retval None
 131:../user/source/stm32f37x_it.c ****   */
 132:../user/source/stm32f37x_it.c **** void DebugMon_Handler(void)
 133:../user/source/stm32f37x_it.c **** {
 140              		.loc 1 133 0
 141              		.cfi_startproc
 142              		@ args = 0, pretend = 0, frame = 0
 143              		@ frame_needed = 0, uses_anonymous_args = 0
 144              		@ link register save eliminated.
 145 0000 7047     		bx	lr
 146              		.cfi_endproc
 147              	.LFE117:
 149 0002 00BF     		.section	.text.PendSV_Handler,"ax",%progbits
 150              		.align	2
 151              		.global	PendSV_Handler
 152              		.thumb
 153              		.thumb_func
 155              	PendSV_Handler:
 156              	.LFB118:
 134:../user/source/stm32f37x_it.c **** }
 135:../user/source/stm32f37x_it.c **** 
 136:../user/source/stm32f37x_it.c **** /**
 137:../user/source/stm32f37x_it.c ****   * @brief  This function handles PendSVC exception.
 138:../user/source/stm32f37x_it.c ****   * @param  None
 139:../user/source/stm32f37x_it.c ****   * @retval None
 140:../user/source/stm32f37x_it.c ****   */
 141:../user/source/stm32f37x_it.c **** void PendSV_Handler(void)
 142:../user/source/stm32f37x_it.c **** {
 157              		.loc 1 142 0
 158              		.cfi_startproc
ARM GAS  C:\Users\strag\AppData\Local\Temp\ccY4seqg.s 			page 6


 159              		@ args = 0, pretend = 0, frame = 0
 160              		@ frame_needed = 0, uses_anonymous_args = 0
 161              		@ link register save eliminated.
 162 0000 7047     		bx	lr
 163              		.cfi_endproc
 164              	.LFE118:
 166 0002 00BF     		.section	.text.SysTick_Handler,"ax",%progbits
 167              		.align	2
 168              		.global	SysTick_Handler
 169              		.thumb
 170              		.thumb_func
 172              	SysTick_Handler:
 173              	.LFB119:
 143:../user/source/stm32f37x_it.c **** }
 144:../user/source/stm32f37x_it.c **** 
 145:../user/source/stm32f37x_it.c **** /**
 146:../user/source/stm32f37x_it.c ****   * @brief  This function handles SysTick Handler.
 147:../user/source/stm32f37x_it.c ****   * @param  None
 148:../user/source/stm32f37x_it.c ****   * @retval None
 149:../user/source/stm32f37x_it.c ****   */
 150:../user/source/stm32f37x_it.c **** void SysTick_Handler(void)
 151:../user/source/stm32f37x_it.c **** {
 174              		.loc 1 151 0
 175              		.cfi_startproc
 176              		@ args = 0, pretend = 0, frame = 0
 177              		@ frame_needed = 0, uses_anonymous_args = 0
 178              		.loc 1 151 0
 179 0000 08B5     		push	{r3, lr}
 180              	.LCFI0:
 181              		.cfi_def_cfa_offset 8
 182              		.cfi_offset 3, -8
 183              		.cfi_offset 14, -4
 152:../user/source/stm32f37x_it.c ****     if (Bit_SET == GPIO_ReadOutputDataBit(GPIOC, GPIO_Pin_13))
 184              		.loc 1 152 0
 185 0002 4FF40051 		mov	r1, #8192
 186 0006 0948     		ldr	r0, .L17
 187 0008 FFF7FEFF 		bl	GPIO_ReadOutputDataBit
 188              	.LVL0:
 189 000c 0128     		cmp	r0, #1
 190 000e 06D1     		bne	.L14
 153:../user/source/stm32f37x_it.c ****     {
 154:../user/source/stm32f37x_it.c ****         GPIO_WriteBit(GPIOC, GPIO_Pin_13, Bit_RESET); //拉低PC13
 191              		.loc 1 154 0
 192 0010 0022     		movs	r2, #0
 193 0012 4FF40051 		mov	r1, #8192
 194 0016 0548     		ldr	r0, .L17
 195 0018 FFF7FEFF 		bl	GPIO_WriteBit
 196              	.LVL1:
 197 001c 08BD     		pop	{r3, pc}
 198              	.L14:
 155:../user/source/stm32f37x_it.c ****     }
 156:../user/source/stm32f37x_it.c ****     else
 157:../user/source/stm32f37x_it.c ****     {
 158:../user/source/stm32f37x_it.c ****         GPIO_WriteBit(GPIOC, GPIO_Pin_13, Bit_SET);
 199              		.loc 1 158 0
 200 001e 0122     		movs	r2, #1
 201 0020 4FF40051 		mov	r1, #8192
ARM GAS  C:\Users\strag\AppData\Local\Temp\ccY4seqg.s 			page 7


 202 0024 0148     		ldr	r0, .L17
 203 0026 FFF7FEFF 		bl	GPIO_WriteBit
 204              	.LVL2:
 205 002a 08BD     		pop	{r3, pc}
 206              	.L18:
 207              		.align	2
 208              	.L17:
 209 002c 00080048 		.word	1207961600
 210              		.cfi_endproc
 211              	.LFE119:
 213              		.section	.text.USART1_IRQHandler,"ax",%progbits
 214              		.align	2
 215              		.global	USART1_IRQHandler
 216              		.thumb
 217              		.thumb_func
 219              	USART1_IRQHandler:
 220              	.LFB120:
 159:../user/source/stm32f37x_it.c ****     }
 160:../user/source/stm32f37x_it.c **** }
 161:../user/source/stm32f37x_it.c **** 
 162:../user/source/stm32f37x_it.c **** /******************************************************************************/
 163:../user/source/stm32f37x_it.c **** /*                 STM32F37x Peripherals Interrupt Handlers                   */
 164:../user/source/stm32f37x_it.c **** /*  Add here the Interrupt Handler for the used peripheral(s) (PPP), for the  */
 165:../user/source/stm32f37x_it.c **** /*  available peripheral interrupt handler's name please refer to the startup */
 166:../user/source/stm32f37x_it.c **** /*  file (startup_stm32f37x.s).                                            */
 167:../user/source/stm32f37x_it.c **** /******************************************************************************/
 168:../user/source/stm32f37x_it.c **** 
 169:../user/source/stm32f37x_it.c **** /**
 170:../user/source/stm32f37x_it.c ****   * @brief  This function handles PPP interrupt request.
 171:../user/source/stm32f37x_it.c ****   * @param  None
 172:../user/source/stm32f37x_it.c ****   * @retval None
 173:../user/source/stm32f37x_it.c ****   */
 174:../user/source/stm32f37x_it.c **** /*void PPP_IRQHandler(void)
 175:../user/source/stm32f37x_it.c **** {
 176:../user/source/stm32f37x_it.c **** }*/
 177:../user/source/stm32f37x_it.c **** 
 178:../user/source/stm32f37x_it.c **** /********************************************************************
 179:../user/source/stm32f37x_it.c **** * 功    能：USART1_IRQHandler中断函数
 180:../user/source/stm32f37x_it.c ****             将串口数据写到Uart1缓存结构体中的数组
 181:../user/source/stm32f37x_it.c **** * 输    入：None
 182:../user/source/stm32f37x_it.c **** * 输    出：None
 183:../user/source/stm32f37x_it.c **** *           
 184:../user/source/stm32f37x_it.c **** * 编 写 人：王君龙
 185:../user/source/stm32f37x_it.c **** * 编写日期：2016.6.23
 186:../user/source/stm32f37x_it.c **** **********************************************************************/
 187:../user/source/stm32f37x_it.c **** void USART1_IRQHandler(void)
 188:../user/source/stm32f37x_it.c **** {
 221              		.loc 1 188 0
 222              		.cfi_startproc
 223              		@ args = 0, pretend = 0, frame = 0
 224              		@ frame_needed = 0, uses_anonymous_args = 0
 225 0000 38B5     		push	{r3, r4, r5, lr}
 226              	.LCFI1:
 227              		.cfi_def_cfa_offset 16
 228              		.cfi_offset 3, -16
 229              		.cfi_offset 4, -12
 230              		.cfi_offset 5, -8
ARM GAS  C:\Users\strag\AppData\Local\Temp\ccY4seqg.s 			page 8


 231              		.cfi_offset 14, -4
 189:../user/source/stm32f37x_it.c ****     if (USART_GetFlagStatus(USART1, USART_FLAG_ORE))
 232              		.loc 1 189 0
 233 0002 0821     		movs	r1, #8
 234 0004 2848     		ldr	r0, .L24
 235 0006 FFF7FEFF 		bl	USART_GetFlagStatus
 236              	.LVL3:
 237 000a 18B1     		cbz	r0, .L20
 190:../user/source/stm32f37x_it.c ****     {
 191:../user/source/stm32f37x_it.c ****         USART_ClearFlag(USART1, USART_FLAG_ORE);
 238              		.loc 1 191 0
 239 000c 0821     		movs	r1, #8
 240 000e 2648     		ldr	r0, .L24
 241 0010 FFF7FEFF 		bl	USART_ClearFlag
 242              	.LVL4:
 243              	.L20:
 192:../user/source/stm32f37x_it.c ****     }
 193:../user/source/stm32f37x_it.c **** 
 194:../user/source/stm32f37x_it.c ****     if (USART_GetITStatus(USART1, USART_IT_RXNE) != RESET)
 244              		.loc 1 194 0
 245 0014 2549     		ldr	r1, .L24+4
 246 0016 2448     		ldr	r0, .L24
 247 0018 FFF7FEFF 		bl	USART_GetITStatus
 248              	.LVL5:
 249 001c C8B1     		cbz	r0, .L21
 195:../user/source/stm32f37x_it.c ****     {
 196:../user/source/stm32f37x_it.c ****         if (blDrv_Buf_IsFull(&ucDrv_Buf_Uart1_Rcv) != true) //if串口1接收缓存区不满
 250              		.loc 1 196 0
 251 001e 2448     		ldr	r0, .L24+8
 252 0020 FFF7FEFF 		bl	blDrv_Buf_IsFull
 253              	.LVL6:
 254 0024 A8B9     		cbnz	r0, .L21
 197:../user/source/stm32f37x_it.c ****         {
 198:../user/source/stm32f37x_it.c ****             ucDrv_Buf_Uart1_Rcv.ucBuf[ucDrv_Buf_Uart1_Rcv.WR_Index] = (uint8_t)USART_ReceiveData(US
 255              		.loc 1 198 0
 256 0026 224C     		ldr	r4, .L24+8
 257 0028 B4F82C51 		ldrh	r5, [r4, #300]
 258 002c 1E48     		ldr	r0, .L24
 259 002e FFF7FEFF 		bl	USART_ReceiveData
 260              	.LVL7:
 261 0032 6055     		strb	r0, [r4, r5]
 199:../user/source/stm32f37x_it.c ****             ucDrv_Buf_Uart1_Rcv.WR_Index = (ucDrv_Buf_Uart1_Rcv.WR_Index + 1) % DRV_BUF_SIZE;
 262              		.loc 1 199 0
 263 0034 B4F82C21 		ldrh	r2, [r4, #300]
 264 0038 0132     		adds	r2, r2, #1
 265 003a 1E4B     		ldr	r3, .L24+12
 266 003c 83FB0231 		smull	r3, r1, r3, r2
 267 0040 D317     		asrs	r3, r2, #31
 268 0042 C3EB6113 		rsb	r3, r3, r1, asr #5
 269 0046 4FF49671 		mov	r1, #300
 270 004a 01FB1323 		mls	r3, r1, r3, r2
 271 004e A4F82C31 		strh	r3, [r4, #300]	@ movhi
 272              	.L21:
 200:../user/source/stm32f37x_it.c ****         }
 201:../user/source/stm32f37x_it.c ****     };
 202:../user/source/stm32f37x_it.c **** 
 203:../user/source/stm32f37x_it.c ****     //从串口1的发送缓存向外发一个字节
ARM GAS  C:\Users\strag\AppData\Local\Temp\ccY4seqg.s 			page 9


 204:../user/source/stm32f37x_it.c ****     if (USART_GetITStatus(USART1, USART_IT_TXE) != RESET)
 273              		.loc 1 204 0
 274 0052 1949     		ldr	r1, .L24+16
 275 0054 1448     		ldr	r0, .L24
 276 0056 FFF7FEFF 		bl	USART_GetITStatus
 277              	.LVL8:
 278 005a 18B3     		cbz	r0, .L19
 205:../user/source/stm32f37x_it.c ****     {
 206:../user/source/stm32f37x_it.c ****         USART_ClearITPendingBit(USART1, USART_IT_TXE);
 279              		.loc 1 206 0
 280 005c 124D     		ldr	r5, .L24
 281 005e 1649     		ldr	r1, .L24+16
 282 0060 2846     		mov	r0, r5
 283 0062 FFF7FEFF 		bl	USART_ClearITPendingBit
 284              	.LVL9:
 207:../user/source/stm32f37x_it.c ****         USART_SendData(USART1, (uint16_t)ucDrv_Buf_Uart1_Snd.ucBuf[ucDrv_Buf_Uart1_Snd.RD_Index]);
 285              		.loc 1 207 0
 286 0066 154C     		ldr	r4, .L24+20
 287 0068 B4F82E31 		ldrh	r3, [r4, #302]
 288 006c E15C     		ldrb	r1, [r4, r3]	@ zero_extendqisi2
 289 006e 2846     		mov	r0, r5
 290 0070 FFF7FEFF 		bl	USART_SendData
 291              	.LVL10:
 208:../user/source/stm32f37x_it.c ****         ucDrv_Buf_Uart1_Snd.RD_Index = (ucDrv_Buf_Uart1_Snd.RD_Index + 1) % DRV_BUF_SIZE;
 292              		.loc 1 208 0
 293 0074 B4F82E21 		ldrh	r2, [r4, #302]
 294 0078 0132     		adds	r2, r2, #1
 295 007a 0E4B     		ldr	r3, .L24+12
 296 007c 83FB0231 		smull	r3, r1, r3, r2
 297 0080 D317     		asrs	r3, r2, #31
 298 0082 C3EB6113 		rsb	r3, r3, r1, asr #5
 299 0086 4FF49671 		mov	r1, #300
 300 008a 01FB1323 		mls	r3, r1, r3, r2
 301 008e A4F82E31 		strh	r3, [r4, #302]	@ movhi
 209:../user/source/stm32f37x_it.c ****         if (blDrv_Buf_IsEmpty(&ucDrv_Buf_Uart1_Snd) == true)
 302              		.loc 1 209 0
 303 0092 2046     		mov	r0, r4
 304 0094 FFF7FEFF 		bl	blDrv_Buf_IsEmpty
 305              	.LVL11:
 306 0098 20B1     		cbz	r0, .L19
 210:../user/source/stm32f37x_it.c ****         {
 211:../user/source/stm32f37x_it.c ****             USART_ITConfig(USART1, USART_IT_TXE, DISABLE);
 307              		.loc 1 211 0
 308 009a 0022     		movs	r2, #0
 309 009c 0649     		ldr	r1, .L24+16
 310 009e 2846     		mov	r0, r5
 311 00a0 FFF7FEFF 		bl	USART_ITConfig
 312              	.LVL12:
 313              	.L19:
 314 00a4 38BD     		pop	{r3, r4, r5, pc}
 315              	.L25:
 316 00a6 00BF     		.align	2
 317              	.L24:
 318 00a8 00380140 		.word	1073821696
 319 00ac 05010500 		.word	327941
 320 00b0 00000000 		.word	ucDrv_Buf_Uart1_Rcv
 321 00b4 B5814E1B 		.word	458129845
ARM GAS  C:\Users\strag\AppData\Local\Temp\ccY4seqg.s 			page 10


 322 00b8 07010700 		.word	459015
 323 00bc 00000000 		.word	ucDrv_Buf_Uart1_Snd
 324              		.cfi_endproc
 325              	.LFE120:
 327              		.section	.text.USART2_IRQHandler,"ax",%progbits
 328              		.align	2
 329              		.global	USART2_IRQHandler
 330              		.thumb
 331              		.thumb_func
 333              	USART2_IRQHandler:
 334              	.LFB121:
 212:../user/source/stm32f37x_it.c ****         }
 213:../user/source/stm32f37x_it.c ****     }
 214:../user/source/stm32f37x_it.c **** }
 215:../user/source/stm32f37x_it.c **** 
 216:../user/source/stm32f37x_it.c **** /********************************************************************
 217:../user/source/stm32f37x_it.c **** * 功    能：USART2_IRQHandler中断函数
 218:../user/source/stm32f37x_it.c ****             将串口数据读取到Uart2缓存结构体中的数组
 219:../user/source/stm32f37x_it.c **** * 输    入：None
 220:../user/source/stm32f37x_it.c **** * 输    出：None
 221:../user/source/stm32f37x_it.c **** *           
 222:../user/source/stm32f37x_it.c **** * 编 写 人：王君龙
 223:../user/source/stm32f37x_it.c **** * 编写日期：2018.4.17
 224:../user/source/stm32f37x_it.c **** **********************************************************************/
 225:../user/source/stm32f37x_it.c **** void USART2_IRQHandler(void)
 226:../user/source/stm32f37x_it.c **** {
 335              		.loc 1 226 0
 336              		.cfi_startproc
 337              		@ args = 0, pretend = 0, frame = 0
 338              		@ frame_needed = 0, uses_anonymous_args = 0
 339              		@ link register save eliminated.
 340 0000 7047     		bx	lr
 341              		.cfi_endproc
 342              	.LFE121:
 344 0002 00BF     		.section	.text.USART3_IRQHandler,"ax",%progbits
 345              		.align	2
 346              		.global	USART3_IRQHandler
 347              		.thumb
 348              		.thumb_func
 350              	USART3_IRQHandler:
 351              	.LFB122:
 227:../user/source/stm32f37x_it.c **** #ifdef ENABLE_INFR
 228:../user/source/stm32f37x_it.c ****     if (USART_GetFlagStatus(USART2, USART_FLAG_ORE) == SET)
 229:../user/source/stm32f37x_it.c ****         USART_ClearFlag(USART2, USART_FLAG_ORE);
 230:../user/source/stm32f37x_it.c ****     if (USART_GetITStatus(USART2, USART_IT_RXNE) != RESET)
 231:../user/source/stm32f37x_it.c ****     {
 232:../user/source/stm32f37x_it.c ****         USART_ClearITPendingBit(USART2, USART_IT_RXNE);
 233:../user/source/stm32f37x_it.c ****         if (blDrv_Buf_IsFull(&ucDrv_Buf_Uart2_Rcv) != true) //if串口2接收缓存区不满
 234:../user/source/stm32f37x_it.c ****         {
 235:../user/source/stm32f37x_it.c ****             ucDrv_Buf_Uart2_Rcv.ucBuf[ucDrv_Buf_Uart2_Rcv.WR_Index] = (uint8_t)USART_ReceiveData(US
 236:../user/source/stm32f37x_it.c ****             ucDrv_Buf_Uart2_Rcv.WR_Index = (ucDrv_Buf_Uart2_Rcv.WR_Index + 1) % DRV_BUF_SIZE;
 237:../user/source/stm32f37x_it.c ****         }
 238:../user/source/stm32f37x_it.c ****     };
 239:../user/source/stm32f37x_it.c ****     if (USART_GetITStatus(USART2, USART_IT_TXE) != RESET)
 240:../user/source/stm32f37x_it.c ****     {
 241:../user/source/stm32f37x_it.c ****         USART_ClearITPendingBit(USART2, USART_IT_TXE);
 242:../user/source/stm32f37x_it.c ****         USART_SendData(USART2, (uint16_t)ucDrv_Buf_Uart2_Snd.ucBuf[ucDrv_Buf_Uart2_Snd.RD_Index]);
ARM GAS  C:\Users\strag\AppData\Local\Temp\ccY4seqg.s 			page 11


 243:../user/source/stm32f37x_it.c ****         ucDrv_Buf_Uart2_Snd.RD_Index = (ucDrv_Buf_Uart2_Snd.RD_Index + 1) % DRV_BUF_SIZE;
 244:../user/source/stm32f37x_it.c ****         if (blDrv_Buf_IsEmpty(&ucDrv_Buf_Uart2_Snd) == true)
 245:../user/source/stm32f37x_it.c ****         {
 246:../user/source/stm32f37x_it.c ****             USART_ITConfig(USART2, USART_IT_TXE, DISABLE);
 247:../user/source/stm32f37x_it.c ****             //TIM_CCxCmd(TIM5, TIM_Channel_2, TIM_CCx_Disable);
 248:../user/source/stm32f37x_it.c ****             while (RESET == USART_GetFlagStatus(USART2, USART_FLAG_TC))
 249:../user/source/stm32f37x_it.c ****             {
 250:../user/source/stm32f37x_it.c ****             }
 251:../user/source/stm32f37x_it.c ****             USART_ITConfig(USART2, USART_IT_RXNE, ENABLE);
 252:../user/source/stm32f37x_it.c ****         }
 253:../user/source/stm32f37x_it.c ****     }
 254:../user/source/stm32f37x_it.c **** #endif
 255:../user/source/stm32f37x_it.c **** }
 256:../user/source/stm32f37x_it.c **** 
 257:../user/source/stm32f37x_it.c **** /********************************************************************
 258:../user/source/stm32f37x_it.c **** * 功    能：USART3_IRQHandler中断函数
 259:../user/source/stm32f37x_it.c ****             将串口数据读取到Uart3缓存结构体中的数组
 260:../user/source/stm32f37x_it.c **** * 输    入：None
 261:../user/source/stm32f37x_it.c **** * 输    出：None
 262:../user/source/stm32f37x_it.c **** *           
 263:../user/source/stm32f37x_it.c **** * 编 写 人：王君龙
 264:../user/source/stm32f37x_it.c **** * 编写日期：2016.6.23
 265:../user/source/stm32f37x_it.c **** **********************************************************************/
 266:../user/source/stm32f37x_it.c **** void USART3_IRQHandler(void)
 267:../user/source/stm32f37x_it.c **** {
 352              		.loc 1 267 0
 353              		.cfi_startproc
 354              		@ args = 0, pretend = 0, frame = 0
 355              		@ frame_needed = 0, uses_anonymous_args = 0
 356              		.loc 1 267 0
 357 0000 38B5     		push	{r3, r4, r5, lr}
 358              	.LCFI2:
 359              		.cfi_def_cfa_offset 16
 360              		.cfi_offset 3, -16
 361              		.cfi_offset 4, -12
 362              		.cfi_offset 5, -8
 363              		.cfi_offset 14, -4
 268:../user/source/stm32f37x_it.c ****     if (USART_GetFlagStatus(USART3, USART_FLAG_ORE))
 364              		.loc 1 268 0
 365 0002 0821     		movs	r1, #8
 366 0004 2548     		ldr	r0, .L32
 367 0006 FFF7FEFF 		bl	USART_GetFlagStatus
 368              	.LVL13:
 369 000a 18B1     		cbz	r0, .L28
 269:../user/source/stm32f37x_it.c ****     {
 270:../user/source/stm32f37x_it.c ****         USART_ClearFlag(USART3, USART_FLAG_ORE);
 370              		.loc 1 270 0
 371 000c 0821     		movs	r1, #8
 372 000e 2348     		ldr	r0, .L32
 373 0010 FFF7FEFF 		bl	USART_ClearFlag
 374              	.LVL14:
 375              	.L28:
 271:../user/source/stm32f37x_it.c ****     }
 272:../user/source/stm32f37x_it.c ****     if (RESET != USART_GetITStatus(USART3, USART_IT_RXNE)) //读一个字节入串口3接收缓存
 376              		.loc 1 272 0
 377 0014 2249     		ldr	r1, .L32+4
 378 0016 2148     		ldr	r0, .L32
ARM GAS  C:\Users\strag\AppData\Local\Temp\ccY4seqg.s 			page 12


 379 0018 FFF7FEFF 		bl	USART_GetITStatus
 380              	.LVL15:
 381 001c C8B1     		cbz	r0, .L29
 273:../user/source/stm32f37x_it.c ****     {
 274:../user/source/stm32f37x_it.c ****         if (blDrv_Buf_IsFull(&ucDrv_Buf_Uart3_Rcv) != true) //if串口3接收缓存区不满
 382              		.loc 1 274 0
 383 001e 2148     		ldr	r0, .L32+8
 384 0020 FFF7FEFF 		bl	blDrv_Buf_IsFull
 385              	.LVL16:
 386 0024 A8B9     		cbnz	r0, .L29
 275:../user/source/stm32f37x_it.c ****         {
 276:../user/source/stm32f37x_it.c ****             ucDrv_Buf_Uart3_Rcv.ucBuf[ucDrv_Buf_Uart3_Rcv.WR_Index] = (uint8_t)USART_ReceiveData(US
 387              		.loc 1 276 0
 388 0026 1F4C     		ldr	r4, .L32+8
 389 0028 B4F82C51 		ldrh	r5, [r4, #300]
 390 002c 1B48     		ldr	r0, .L32
 391 002e FFF7FEFF 		bl	USART_ReceiveData
 392              	.LVL17:
 393 0032 6055     		strb	r0, [r4, r5]
 277:../user/source/stm32f37x_it.c ****             ucDrv_Buf_Uart3_Rcv.WR_Index = (ucDrv_Buf_Uart3_Rcv.WR_Index + 1) % DRV_BUF_SIZE;
 394              		.loc 1 277 0
 395 0034 B4F82C21 		ldrh	r2, [r4, #300]
 396 0038 0132     		adds	r2, r2, #1
 397 003a 1B4B     		ldr	r3, .L32+12
 398 003c 83FB0231 		smull	r3, r1, r3, r2
 399 0040 D317     		asrs	r3, r2, #31
 400 0042 C3EB6113 		rsb	r3, r3, r1, asr #5
 401 0046 4FF49671 		mov	r1, #300
 402 004a 01FB1323 		mls	r3, r1, r3, r2
 403 004e A4F82C31 		strh	r3, [r4, #300]	@ movhi
 404              	.L29:
 278:../user/source/stm32f37x_it.c ****         }
 279:../user/source/stm32f37x_it.c ****     }
 280:../user/source/stm32f37x_it.c ****     if (USART_GetITStatus(USART3, USART_IT_TXE) != RESET)
 405              		.loc 1 280 0
 406 0052 1649     		ldr	r1, .L32+16
 407 0054 1148     		ldr	r0, .L32
 408 0056 FFF7FEFF 		bl	USART_GetITStatus
 409              	.LVL18:
 410 005a F0B1     		cbz	r0, .L27
 281:../user/source/stm32f37x_it.c ****     {
 282:../user/source/stm32f37x_it.c ****         //USART_ClearITPendingBit(USART3,USART_IT_TXE);
 283:../user/source/stm32f37x_it.c ****         USART_SendData(USART3, (uint16_t)ucDrv_Buf_Uart3_Snd.ucBuf[ucDrv_Buf_Uart3_Snd.RD_Index]);
 411              		.loc 1 283 0
 412 005c 144C     		ldr	r4, .L32+20
 413 005e B4F82E31 		ldrh	r3, [r4, #302]
 414 0062 E15C     		ldrb	r1, [r4, r3]	@ zero_extendqisi2
 415 0064 0D48     		ldr	r0, .L32
 416 0066 FFF7FEFF 		bl	USART_SendData
 417              	.LVL19:
 284:../user/source/stm32f37x_it.c ****         ucDrv_Buf_Uart3_Snd.RD_Index = (ucDrv_Buf_Uart3_Snd.RD_Index + 1) % DRV_BUF_SIZE;
 418              		.loc 1 284 0
 419 006a B4F82E21 		ldrh	r2, [r4, #302]
 420 006e 0132     		adds	r2, r2, #1
 421 0070 0D4B     		ldr	r3, .L32+12
 422 0072 83FB0231 		smull	r3, r1, r3, r2
 423 0076 D317     		asrs	r3, r2, #31
ARM GAS  C:\Users\strag\AppData\Local\Temp\ccY4seqg.s 			page 13


 424 0078 C3EB6113 		rsb	r3, r3, r1, asr #5
 425 007c 4FF49671 		mov	r1, #300
 426 0080 01FB1323 		mls	r3, r1, r3, r2
 427 0084 A4F82E31 		strh	r3, [r4, #302]	@ movhi
 285:../user/source/stm32f37x_it.c ****         if (blDrv_Buf_IsEmpty(&ucDrv_Buf_Uart3_Snd) == true)
 428              		.loc 1 285 0
 429 0088 2046     		mov	r0, r4
 430 008a FFF7FEFF 		bl	blDrv_Buf_IsEmpty
 431              	.LVL20:
 432 008e 20B1     		cbz	r0, .L27
 286:../user/source/stm32f37x_it.c ****             USART_ITConfig(USART3, USART_IT_TXE, DISABLE);
 433              		.loc 1 286 0
 434 0090 0022     		movs	r2, #0
 435 0092 0649     		ldr	r1, .L32+16
 436 0094 0148     		ldr	r0, .L32
 437 0096 FFF7FEFF 		bl	USART_ITConfig
 438              	.LVL21:
 439              	.L27:
 440 009a 38BD     		pop	{r3, r4, r5, pc}
 441              	.L33:
 442              		.align	2
 443              	.L32:
 444 009c 00480040 		.word	1073760256
 445 00a0 05010500 		.word	327941
 446 00a4 00000000 		.word	ucDrv_Buf_Uart3_Rcv
 447 00a8 B5814E1B 		.word	458129845
 448 00ac 07010700 		.word	459015
 449 00b0 00000000 		.word	ucDrv_Buf_Uart3_Snd
 450              		.cfi_endproc
 451              	.LFE122:
 453              		.section	.text.TIM2_IRQHandler,"ax",%progbits
 454              		.align	2
 455              		.global	TIM2_IRQHandler
 456              		.thumb
 457              		.thumb_func
 459              	TIM2_IRQHandler:
 460              	.LFB123:
 287:../user/source/stm32f37x_it.c ****     }
 288:../user/source/stm32f37x_it.c **** }
 289:../user/source/stm32f37x_it.c **** 
 290:../user/source/stm32f37x_it.c **** /********************************************************************
 291:../user/source/stm32f37x_it.c **** * 功    能：TIM2_IRQHandler断函数
 292:../user/source/stm32f37x_it.c ****             计时累加
 293:../user/source/stm32f37x_it.c **** * 输    入：None
 294:../user/source/stm32f37x_it.c **** * 输    出：None
 295:../user/source/stm32f37x_it.c **** *           
 296:../user/source/stm32f37x_it.c **** * 编 写 人：王君龙
 297:../user/source/stm32f37x_it.c **** * 编写日期：2016.6.23
 298:../user/source/stm32f37x_it.c **** **********************************************************************/
 299:../user/source/stm32f37x_it.c **** void TIM2_IRQHandler(void)
 300:../user/source/stm32f37x_it.c **** {
 461              		.loc 1 300 0
 462              		.cfi_startproc
 463              		@ args = 0, pretend = 0, frame = 0
 464              		@ frame_needed = 0, uses_anonymous_args = 0
 465 0000 08B5     		push	{r3, lr}
 466              	.LCFI3:
ARM GAS  C:\Users\strag\AppData\Local\Temp\ccY4seqg.s 			page 14


 467              		.cfi_def_cfa_offset 8
 468              		.cfi_offset 3, -8
 469              		.cfi_offset 14, -4
 301:../user/source/stm32f37x_it.c ****     if (TIM_GetITStatus(TIM2, TIM_IT_Update) != RESET)
 470              		.loc 1 301 0
 471 0002 0121     		movs	r1, #1
 472 0004 4FF08040 		mov	r0, #1073741824
 473 0008 FFF7FEFF 		bl	TIM_GetITStatus
 474              	.LVL22:
 475 000c 90B1     		cbz	r0, .L34
 302:../user/source/stm32f37x_it.c ****     {
 303:../user/source/stm32f37x_it.c ****         TIM_ClearITPendingBit(TIM2, TIM_IT_Update);
 476              		.loc 1 303 0
 477 000e 0121     		movs	r1, #1
 478 0010 4FF08040 		mov	r0, #1073741824
 479 0014 FFF7FEFF 		bl	TIM_ClearITPendingBit
 480              	.LVL23:
 304:../user/source/stm32f37x_it.c ****         if (blWordsCounterStatus == true)
 481              		.loc 1 304 0
 482 0018 074B     		ldr	r3, .L38
 483 001a 1B78     		ldrb	r3, [r3]	@ zero_extendqisi2
 484 001c 1BB1     		cbz	r3, .L36
 305:../user/source/stm32f37x_it.c ****         {
 306:../user/source/stm32f37x_it.c ****             uwTime2WordsCounter++;
 485              		.loc 1 306 0
 486 001e 074A     		ldr	r2, .L38+4
 487 0020 1388     		ldrh	r3, [r2]
 488 0022 0133     		adds	r3, r3, #1
 489 0024 1380     		strh	r3, [r2]	@ movhi
 490              	.L36:
 307:../user/source/stm32f37x_it.c ****         }
 308:../user/source/stm32f37x_it.c ****         if (blFramesCounterStatus == true)
 491              		.loc 1 308 0
 492 0026 064B     		ldr	r3, .L38+8
 493 0028 1B78     		ldrb	r3, [r3]	@ zero_extendqisi2
 494 002a 1BB1     		cbz	r3, .L34
 309:../user/source/stm32f37x_it.c ****         {
 310:../user/source/stm32f37x_it.c ****             uwTime2FramesCounter++;
 495              		.loc 1 310 0
 496 002c 054A     		ldr	r2, .L38+12
 497 002e 1388     		ldrh	r3, [r2]
 498 0030 0133     		adds	r3, r3, #1
 499 0032 1380     		strh	r3, [r2]	@ movhi
 500              	.L34:
 501 0034 08BD     		pop	{r3, pc}
 502              	.L39:
 503 0036 00BF     		.align	2
 504              	.L38:
 505 0038 00000000 		.word	blWordsCounterStatus
 506 003c 00000000 		.word	uwTime2WordsCounter
 507 0040 00000000 		.word	blFramesCounterStatus
 508 0044 00000000 		.word	uwTime2FramesCounter
 509              		.cfi_endproc
 510              	.LFE123:
 512              		.section	.text.TIM5_IRQHandler,"ax",%progbits
 513              		.align	2
 514              		.global	TIM5_IRQHandler
ARM GAS  C:\Users\strag\AppData\Local\Temp\ccY4seqg.s 			page 15


 515              		.thumb
 516              		.thumb_func
 518              	TIM5_IRQHandler:
 519              	.LFB124:
 311:../user/source/stm32f37x_it.c ****         }
 312:../user/source/stm32f37x_it.c ****     }
 313:../user/source/stm32f37x_it.c **** }
 314:../user/source/stm32f37x_it.c **** 
 315:../user/source/stm32f37x_it.c **** /********************************************************************
 316:../user/source/stm32f37x_it.c **** * 功    能：TIM5_IRQHandler断函数
 317:../user/source/stm32f37x_it.c **** 				PWM输出
 318:../user/source/stm32f37x_it.c **** * 输    入：None
 319:../user/source/stm32f37x_it.c **** * 输    出：None
 320:../user/source/stm32f37x_it.c **** *
 321:../user/source/stm32f37x_it.c **** * 编 写 人：王君龙
 322:../user/source/stm32f37x_it.c **** * 编写日期：2017.9.11
 323:../user/source/stm32f37x_it.c **** **********************************************************************/
 324:../user/source/stm32f37x_it.c **** void TIM5_IRQHandler(void)
 325:../user/source/stm32f37x_it.c **** {
 520              		.loc 1 325 0
 521              		.cfi_startproc
 522              		@ args = 0, pretend = 0, frame = 0
 523              		@ frame_needed = 0, uses_anonymous_args = 0
 524              		@ link register save eliminated.
 525 0000 7047     		bx	lr
 526              		.cfi_endproc
 527              	.LFE124:
 529              		.global	capture
 530 0002 00BF     		.section	.bss.capture,"aw",%nobits
 531              		.align	1
 534              	capture:
 535 0000 0000     		.space	2
 536              		.text
 537              	.Letext0:
 538              		.file 2 "d:\\gcc-arm-none-eabi-5_4-2016q3-20160926-win32\\arm-none-eabi\\include\\machine\\_defaul
 539              		.file 3 "d:\\gcc-arm-none-eabi-5_4-2016q3-20160926-win32\\arm-none-eabi\\include\\sys\\_stdint.h"
 540              		.file 4 "../cmsis/include/stm32f37x.h"
 541              		.file 5 "../stdperiph/include/stm32f37x_gpio.h"
 542              		.file 6 "../user/include/Uart.h"
 543              		.file 7 "../cmsis/include/core_cm4.h"
 544              		.file 8 "../user/include/Time.h"
 545              		.file 9 "../stdperiph/include/stm32f37x_usart.h"
 546              		.file 10 "../stdperiph/include/stm32f37x_tim.h"
ARM GAS  C:\Users\strag\AppData\Local\Temp\ccY4seqg.s 			page 16

