ARM GAS  C:\Users\strag\AppData\Local\Temp\ccmedD7n.s 			page 1


   1              		.syntax unified
   2              		.cpu cortex-m4
   3              		.eabi_attribute 27, 1
   4              		.eabi_attribute 28, 1
   5              		.fpu fpv4-sp-d16
   6              		.eabi_attribute 20, 1
   7              		.eabi_attribute 21, 1
   8              		.eabi_attribute 23, 3
   9              		.eabi_attribute 24, 1
  10              		.eabi_attribute 25, 1
  11              		.eabi_attribute 26, 1
  12              		.eabi_attribute 30, 1
  13              		.eabi_attribute 34, 1
  14              		.eabi_attribute 18, 4
  15              		.thumb
  16              		.syntax unified
  17              		.file	"stm32f37x_misc.c"
  18              		.text
  19              	.Ltext0:
  20              		.cfi_sections	.debug_frame
  21              		.section	.text.NVIC_PriorityGroupConfig,"ax",%progbits
  22              		.align	2
  23              		.global	NVIC_PriorityGroupConfig
  24              		.thumb
  25              		.thumb_func
  27              	NVIC_PriorityGroupConfig:
  28              	.LFB111:
  29              		.file 1 "../stdperiph/source/stm32f37x_misc.c"
   1:../stdperiph/source/stm32f37x_misc.c **** /**
   2:../stdperiph/source/stm32f37x_misc.c ****   ******************************************************************************
   3:../stdperiph/source/stm32f37x_misc.c ****   * @file    stm32f37x_misc.c
   4:../stdperiph/source/stm32f37x_misc.c ****   * @author  MCD Application Team
   5:../stdperiph/source/stm32f37x_misc.c ****   * @version V1.0.0
   6:../stdperiph/source/stm32f37x_misc.c ****   * @date    20-September-2012
   7:../stdperiph/source/stm32f37x_misc.c ****   * @brief   This file provides all the miscellaneous firmware functions (add-on
   8:../stdperiph/source/stm32f37x_misc.c ****   *          to CMSIS functions).
   9:../stdperiph/source/stm32f37x_misc.c ****   *          
  10:../stdperiph/source/stm32f37x_misc.c **** @verbatim
  11:../stdperiph/source/stm32f37x_misc.c ****  *******************************************************************************
  12:../stdperiph/source/stm32f37x_misc.c ****                    ##### Interrupts configuration functions #####
  13:../stdperiph/source/stm32f37x_misc.c ****  *******************************************************************************
  14:../stdperiph/source/stm32f37x_misc.c ****     [..] This section provide functions allowing to configure the NVIC interrupts 
  15:../stdperiph/source/stm32f37x_misc.c ****          (IRQ).The Cortex-M4 exceptions are managed by CMSIS functions.
  16:../stdperiph/source/stm32f37x_misc.c ****          (#) Configure the NVIC Priority Grouping using NVIC_PriorityGroupConfig() 
  17:../stdperiph/source/stm32f37x_misc.c ****              function according to the following table.
  18:../stdperiph/source/stm32f37x_misc.c ****              The table below gives the allowed values of the preemption priority 
  19:../stdperiph/source/stm32f37x_misc.c ****              and subpriority according to the Priority Grouping configuration 
  20:../stdperiph/source/stm32f37x_misc.c ****              performed by NVIC_PriorityGroupConfig function.
  21:../stdperiph/source/stm32f37x_misc.c ****          (#) Enable and Configure the priority of the selected IRQ Channels.  
  22:../stdperiph/source/stm32f37x_misc.c **** 
  23:../stdperiph/source/stm32f37x_misc.c ****         -@- When the NVIC_PriorityGroup_0 is selected, it will no any nested interrupt,
  24:../stdperiph/source/stm32f37x_misc.c ****             the IRQ priority will be managed only by subpriority.
  25:../stdperiph/source/stm32f37x_misc.c ****             The sub-priority is only used to sort pending exception priorities, 
  26:../stdperiph/source/stm32f37x_misc.c ****             and does not affect active exceptions.
  27:../stdperiph/source/stm32f37x_misc.c ****         -@- Lower priority values gives higher priority.
  28:../stdperiph/source/stm32f37x_misc.c ****         -@- Priority Order:
  29:../stdperiph/source/stm32f37x_misc.c ****             (#@) Lowest Preemption priority.
ARM GAS  C:\Users\strag\AppData\Local\Temp\ccmedD7n.s 			page 2


  30:../stdperiph/source/stm32f37x_misc.c ****             (#@) Lowest Subpriority.
  31:../stdperiph/source/stm32f37x_misc.c ****             (#@) Lowest hardware priority (IRQn position).
  32:../stdperiph/source/stm32f37x_misc.c ****   
  33:../stdperiph/source/stm32f37x_misc.c **** @endverbatim
  34:../stdperiph/source/stm32f37x_misc.c ****   *
  35:../stdperiph/source/stm32f37x_misc.c ****   ******************************************************************************
  36:../stdperiph/source/stm32f37x_misc.c ****   * @attention
  37:../stdperiph/source/stm32f37x_misc.c ****   *
  38:../stdperiph/source/stm32f37x_misc.c ****   * <h2><center>&copy; COPYRIGHT 2012 STMicroelectronics</center></h2>
  39:../stdperiph/source/stm32f37x_misc.c ****   *
  40:../stdperiph/source/stm32f37x_misc.c ****   * Licensed under MCD-ST Liberty SW License Agreement V2, (the "License");
  41:../stdperiph/source/stm32f37x_misc.c ****   * You may not use this file except in compliance with the License.
  42:../stdperiph/source/stm32f37x_misc.c ****   * You may obtain a copy of the License at:
  43:../stdperiph/source/stm32f37x_misc.c ****   *
  44:../stdperiph/source/stm32f37x_misc.c ****   *        http://www.st.com/software_license_agreement_liberty_v2
  45:../stdperiph/source/stm32f37x_misc.c ****   *
  46:../stdperiph/source/stm32f37x_misc.c ****   * Unless required by applicable law or agreed to in writing, software 
  47:../stdperiph/source/stm32f37x_misc.c ****   * distributed under the License is distributed on an "AS IS" BASIS, 
  48:../stdperiph/source/stm32f37x_misc.c ****   * WITHOUT WARRANTIES OR CONDITIONS OF ANY KIND, either express or implied.
  49:../stdperiph/source/stm32f37x_misc.c ****   * See the License for the specific language governing permissions and
  50:../stdperiph/source/stm32f37x_misc.c ****   * limitations under the License.
  51:../stdperiph/source/stm32f37x_misc.c ****   *
  52:../stdperiph/source/stm32f37x_misc.c ****   ******************************************************************************
  53:../stdperiph/source/stm32f37x_misc.c ****   */
  54:../stdperiph/source/stm32f37x_misc.c **** 
  55:../stdperiph/source/stm32f37x_misc.c **** /* Includes ------------------------------------------------------------------*/
  56:../stdperiph/source/stm32f37x_misc.c **** #include "stm32f37x_misc.h"
  57:../stdperiph/source/stm32f37x_misc.c **** 
  58:../stdperiph/source/stm32f37x_misc.c **** /** @addtogroup STM32F37x_StdPeriph_Driver
  59:../stdperiph/source/stm32f37x_misc.c ****   * @{
  60:../stdperiph/source/stm32f37x_misc.c ****   */
  61:../stdperiph/source/stm32f37x_misc.c **** 
  62:../stdperiph/source/stm32f37x_misc.c **** /** @defgroup MISC 
  63:../stdperiph/source/stm32f37x_misc.c ****   * @brief MISC driver modules
  64:../stdperiph/source/stm32f37x_misc.c ****   * @{
  65:../stdperiph/source/stm32f37x_misc.c ****   */
  66:../stdperiph/source/stm32f37x_misc.c **** 
  67:../stdperiph/source/stm32f37x_misc.c **** /* Private typedef -----------------------------------------------------------*/
  68:../stdperiph/source/stm32f37x_misc.c **** /* Private define ------------------------------------------------------------*/
  69:../stdperiph/source/stm32f37x_misc.c **** #define AIRCR_VECTKEY_MASK    ((uint32_t)0x05FA0000)
  70:../stdperiph/source/stm32f37x_misc.c **** 
  71:../stdperiph/source/stm32f37x_misc.c **** /* Private macro -------------------------------------------------------------*/
  72:../stdperiph/source/stm32f37x_misc.c **** /* Private variables ---------------------------------------------------------*/
  73:../stdperiph/source/stm32f37x_misc.c **** /* Private function prototypes -----------------------------------------------*/
  74:../stdperiph/source/stm32f37x_misc.c **** /* Private functions ---------------------------------------------------------*/
  75:../stdperiph/source/stm32f37x_misc.c **** 
  76:../stdperiph/source/stm32f37x_misc.c **** /** @defgroup MISC_Private_Functions
  77:../stdperiph/source/stm32f37x_misc.c ****   * @{
  78:../stdperiph/source/stm32f37x_misc.c ****   */
  79:../stdperiph/source/stm32f37x_misc.c **** 
  80:../stdperiph/source/stm32f37x_misc.c **** /**
  81:../stdperiph/source/stm32f37x_misc.c ****   * @brief  Configures the priority grouping: preemption priority and subpriority.
  82:../stdperiph/source/stm32f37x_misc.c ****   * @param  NVIC_PriorityGroup: specifies the priority grouping bits length. 
  83:../stdperiph/source/stm32f37x_misc.c ****   *          This parameter can be one of the following values:
  84:../stdperiph/source/stm32f37x_misc.c ****   *            @arg NVIC_PriorityGroup_0: 0 bits for preemption priority
  85:../stdperiph/source/stm32f37x_misc.c ****   *                                4 bits for subpriority.
  86:../stdperiph/source/stm32f37x_misc.c ****   *     @note When NVIC_PriorityGroup_0 is selected, it will no be any nested 
ARM GAS  C:\Users\strag\AppData\Local\Temp\ccmedD7n.s 			page 3


  87:../stdperiph/source/stm32f37x_misc.c ****   *           interrupt. This interrupts priority is managed only with subpriority.  
  88:../stdperiph/source/stm32f37x_misc.c ****   *            @arg NVIC_PriorityGroup_1: 1 bits for preemption priority.
  89:../stdperiph/source/stm32f37x_misc.c ****   *                                3 bits for subpriority.
  90:../stdperiph/source/stm32f37x_misc.c ****   *            @arg NVIC_PriorityGroup_2: 2 bits for preemption priority.
  91:../stdperiph/source/stm32f37x_misc.c ****   *                                2 bits for subpriority.
  92:../stdperiph/source/stm32f37x_misc.c ****   *            @arg NVIC_PriorityGroup_3: 3 bits for preemption priority.
  93:../stdperiph/source/stm32f37x_misc.c ****   *                                1 bits for subpriority.
  94:../stdperiph/source/stm32f37x_misc.c ****   *            @arg NVIC_PriorityGroup_4: 4 bits for preemption priority.
  95:../stdperiph/source/stm32f37x_misc.c ****   *                                0 bits for subpriority.
  96:../stdperiph/source/stm32f37x_misc.c ****   * @retval None
  97:../stdperiph/source/stm32f37x_misc.c ****   */
  98:../stdperiph/source/stm32f37x_misc.c **** void NVIC_PriorityGroupConfig(uint32_t NVIC_PriorityGroup)
  99:../stdperiph/source/stm32f37x_misc.c **** {
  30              		.loc 1 99 0
  31              		.cfi_startproc
  32              		@ args = 0, pretend = 0, frame = 0
  33              		@ frame_needed = 0, uses_anonymous_args = 0
  34              		@ link register save eliminated.
  35              	.LVL0:
 100:../stdperiph/source/stm32f37x_misc.c ****   /* Check the parameters */
 101:../stdperiph/source/stm32f37x_misc.c ****   assert_param(IS_NVIC_PRIORITY_GROUP(NVIC_PriorityGroup));
 102:../stdperiph/source/stm32f37x_misc.c ****   
 103:../stdperiph/source/stm32f37x_misc.c ****   /* Set the PRIGROUP[10:8] bits according to NVIC_PriorityGroup value */
 104:../stdperiph/source/stm32f37x_misc.c ****   SCB->AIRCR = AIRCR_VECTKEY_MASK | NVIC_PriorityGroup;
  36              		.loc 1 104 0
  37 0000 40F0BF60 		orr	r0, r0, #100139008
  38              	.LVL1:
  39 0004 40F40030 		orr	r0, r0, #131072
  40 0008 014B     		ldr	r3, .L2
  41 000a D860     		str	r0, [r3, #12]
  42 000c 7047     		bx	lr
  43              	.L3:
  44 000e 00BF     		.align	2
  45              	.L2:
  46 0010 00ED00E0 		.word	-536810240
  47              		.cfi_endproc
  48              	.LFE111:
  50              		.section	.text.NVIC_Init,"ax",%progbits
  51              		.align	2
  52              		.global	NVIC_Init
  53              		.thumb
  54              		.thumb_func
  56              	NVIC_Init:
  57              	.LFB112:
 105:../stdperiph/source/stm32f37x_misc.c **** }
 106:../stdperiph/source/stm32f37x_misc.c **** 
 107:../stdperiph/source/stm32f37x_misc.c **** /**
 108:../stdperiph/source/stm32f37x_misc.c ****   * @brief  Initializes the NVIC peripheral according to the specified
 109:../stdperiph/source/stm32f37x_misc.c ****   *         parameters in the NVIC_InitStruct.
 110:../stdperiph/source/stm32f37x_misc.c ****   * @note   To configure interrupts priority correctly, the NVIC_PriorityGroupConfig()
 111:../stdperiph/source/stm32f37x_misc.c ****   *         function should be called before.
 112:../stdperiph/source/stm32f37x_misc.c ****   * @param  NVIC_InitStruct: pointer to a NVIC_InitTypeDef structure that contains
 113:../stdperiph/source/stm32f37x_misc.c ****   *         the configuration information for the specified NVIC peripheral.
 114:../stdperiph/source/stm32f37x_misc.c ****   * @retval None
 115:../stdperiph/source/stm32f37x_misc.c ****   */
 116:../stdperiph/source/stm32f37x_misc.c **** void NVIC_Init(NVIC_InitTypeDef* NVIC_InitStruct)
 117:../stdperiph/source/stm32f37x_misc.c **** {
ARM GAS  C:\Users\strag\AppData\Local\Temp\ccmedD7n.s 			page 4


  58              		.loc 1 117 0
  59              		.cfi_startproc
  60              		@ args = 0, pretend = 0, frame = 0
  61              		@ frame_needed = 0, uses_anonymous_args = 0
  62              		@ link register save eliminated.
  63              	.LVL2:
 118:../stdperiph/source/stm32f37x_misc.c ****   uint32_t tmppriority = 0x00, tmppre = 0x00, tmpsub = 0x0F;
 119:../stdperiph/source/stm32f37x_misc.c ****   
 120:../stdperiph/source/stm32f37x_misc.c ****   /* Check the parameters */
 121:../stdperiph/source/stm32f37x_misc.c ****   assert_param(IS_FUNCTIONAL_STATE(NVIC_InitStruct->NVIC_IRQChannelCmd));
 122:../stdperiph/source/stm32f37x_misc.c ****   assert_param(IS_NVIC_PREEMPTION_PRIORITY(NVIC_InitStruct->NVIC_IRQChannelPreemptionPriority));  
 123:../stdperiph/source/stm32f37x_misc.c ****   assert_param(IS_NVIC_SUB_PRIORITY(NVIC_InitStruct->NVIC_IRQChannelSubPriority));
 124:../stdperiph/source/stm32f37x_misc.c ****     
 125:../stdperiph/source/stm32f37x_misc.c ****   if (NVIC_InitStruct->NVIC_IRQChannelCmd != DISABLE)
  64              		.loc 1 125 0
  65 0000 C378     		ldrb	r3, [r0, #3]	@ zero_extendqisi2
  66 0002 FBB1     		cbz	r3, .L5
 126:../stdperiph/source/stm32f37x_misc.c ****   {
 127:../stdperiph/source/stm32f37x_misc.c ****     /* Compute the Corresponding IRQ Priority --------------------------------*/    
 128:../stdperiph/source/stm32f37x_misc.c ****     tmppriority = (0x700 - ((SCB->AIRCR) & (uint32_t)0x700))>> 0x08;
  67              		.loc 1 128 0
  68 0004 154B     		ldr	r3, .L7
  69 0006 DB68     		ldr	r3, [r3, #12]
  70 0008 DB43     		mvns	r3, r3
  71 000a C3F30223 		ubfx	r3, r3, #8, #3
  72              	.LVL3:
 129:../stdperiph/source/stm32f37x_misc.c ****     tmppre = (0x4 - tmppriority);
  73              		.loc 1 129 0
  74 000e C3F10401 		rsb	r1, r3, #4
  75              	.LVL4:
 130:../stdperiph/source/stm32f37x_misc.c ****     tmpsub = tmpsub >> tmppriority;
  76              		.loc 1 130 0
  77 0012 0F22     		movs	r2, #15
  78 0014 DA40     		lsrs	r2, r2, r3
  79              	.LVL5:
 131:../stdperiph/source/stm32f37x_misc.c **** 
 132:../stdperiph/source/stm32f37x_misc.c ****     tmppriority = (uint32_t)NVIC_InitStruct->NVIC_IRQChannelPreemptionPriority << tmppre;
  80              		.loc 1 132 0
  81 0016 4378     		ldrb	r3, [r0, #1]	@ zero_extendqisi2
  82              	.LVL6:
  83 0018 03FA01F1 		lsl	r1, r3, r1
  84              	.LVL7:
 133:../stdperiph/source/stm32f37x_misc.c ****     tmppriority |=  NVIC_InitStruct->NVIC_IRQChannelSubPriority & tmpsub;
  85              		.loc 1 133 0
  86 001c 8378     		ldrb	r3, [r0, #2]	@ zero_extendqisi2
  87 001e 1340     		ands	r3, r3, r2
  88 0020 0B43     		orrs	r3, r3, r1
  89              	.LVL8:
 134:../stdperiph/source/stm32f37x_misc.c ****     tmppriority = tmppriority << 0x04;
  90              		.loc 1 134 0
  91 0022 1B01     		lsls	r3, r3, #4
  92              	.LVL9:
 135:../stdperiph/source/stm32f37x_misc.c ****         
 136:../stdperiph/source/stm32f37x_misc.c ****     NVIC->IP[NVIC_InitStruct->NVIC_IRQChannel] = (uint8_t)tmppriority;
  93              		.loc 1 136 0
  94 0024 0278     		ldrb	r2, [r0]	@ zero_extendqisi2
  95              	.LVL10:
ARM GAS  C:\Users\strag\AppData\Local\Temp\ccmedD7n.s 			page 5


  96 0026 DBB2     		uxtb	r3, r3
  97              	.LVL11:
  98 0028 0D49     		ldr	r1, .L7+4
  99 002a 0A44     		add	r2, r2, r1
 100 002c 82F80033 		strb	r3, [r2, #768]
 137:../stdperiph/source/stm32f37x_misc.c ****     
 138:../stdperiph/source/stm32f37x_misc.c ****     /* Enable the Selected IRQ Channels --------------------------------------*/
 139:../stdperiph/source/stm32f37x_misc.c ****     NVIC->ISER[NVIC_InitStruct->NVIC_IRQChannel >> 0x05] =
 101              		.loc 1 139 0
 102 0030 0378     		ldrb	r3, [r0]	@ zero_extendqisi2
 103 0032 5809     		lsrs	r0, r3, #5
 104              	.LVL12:
 140:../stdperiph/source/stm32f37x_misc.c ****       (uint32_t)0x01 << (NVIC_InitStruct->NVIC_IRQChannel & (uint8_t)0x1F);
 105              		.loc 1 140 0
 106 0034 03F01F03 		and	r3, r3, #31
 107 0038 0122     		movs	r2, #1
 108 003a 02FA03F3 		lsl	r3, r2, r3
 139:../stdperiph/source/stm32f37x_misc.c ****       (uint32_t)0x01 << (NVIC_InitStruct->NVIC_IRQChannel & (uint8_t)0x1F);
 109              		.loc 1 139 0
 110 003e 41F82030 		str	r3, [r1, r0, lsl #2]
 111 0042 7047     		bx	lr
 112              	.LVL13:
 113              	.L5:
 141:../stdperiph/source/stm32f37x_misc.c ****   }
 142:../stdperiph/source/stm32f37x_misc.c ****   else
 143:../stdperiph/source/stm32f37x_misc.c ****   {
 144:../stdperiph/source/stm32f37x_misc.c ****     /* Disable the Selected IRQ Channels -------------------------------------*/
 145:../stdperiph/source/stm32f37x_misc.c ****     NVIC->ICER[NVIC_InitStruct->NVIC_IRQChannel >> 0x05] =
 114              		.loc 1 145 0
 115 0044 0378     		ldrb	r3, [r0]	@ zero_extendqisi2
 116 0046 5A09     		lsrs	r2, r3, #5
 146:../stdperiph/source/stm32f37x_misc.c ****       (uint32_t)0x01 << (NVIC_InitStruct->NVIC_IRQChannel & (uint8_t)0x1F);
 117              		.loc 1 146 0
 118 0048 03F01F03 		and	r3, r3, #31
 119 004c 0121     		movs	r1, #1
 120 004e 01FA03F3 		lsl	r3, r1, r3
 145:../stdperiph/source/stm32f37x_misc.c ****       (uint32_t)0x01 << (NVIC_InitStruct->NVIC_IRQChannel & (uint8_t)0x1F);
 121              		.loc 1 145 0
 122 0052 2032     		adds	r2, r2, #32
 123 0054 0249     		ldr	r1, .L7+4
 124 0056 41F82230 		str	r3, [r1, r2, lsl #2]
 125 005a 7047     		bx	lr
 126              	.L8:
 127              		.align	2
 128              	.L7:
 129 005c 00ED00E0 		.word	-536810240
 130 0060 00E100E0 		.word	-536813312
 131              		.cfi_endproc
 132              	.LFE112:
 134              		.section	.text.NVIC_SetVectorTable,"ax",%progbits
 135              		.align	2
 136              		.global	NVIC_SetVectorTable
 137              		.thumb
 138              		.thumb_func
 140              	NVIC_SetVectorTable:
 141              	.LFB113:
 147:../stdperiph/source/stm32f37x_misc.c ****   }
ARM GAS  C:\Users\strag\AppData\Local\Temp\ccmedD7n.s 			page 6


 148:../stdperiph/source/stm32f37x_misc.c **** }
 149:../stdperiph/source/stm32f37x_misc.c **** 
 150:../stdperiph/source/stm32f37x_misc.c **** /**
 151:../stdperiph/source/stm32f37x_misc.c ****   * @brief  Sets the vector table location and Offset.
 152:../stdperiph/source/stm32f37x_misc.c ****   * @param  NVIC_VectTab: specifies if the vector table is in RAM or FLASH memory.
 153:../stdperiph/source/stm32f37x_misc.c ****   *          This parameter can be one of the following values:
 154:../stdperiph/source/stm32f37x_misc.c ****   *            @arg NVIC_VectTab_RAM: Vector Table in internal SRAM.
 155:../stdperiph/source/stm32f37x_misc.c ****   *            @arg NVIC_VectTab_FLASH: Vector Table in internal FLASH.
 156:../stdperiph/source/stm32f37x_misc.c ****   * @param  Offset: Vector Table base offset field. This value must be a multiple of 0x200.
 157:../stdperiph/source/stm32f37x_misc.c ****   * @retval None
 158:../stdperiph/source/stm32f37x_misc.c ****   */
 159:../stdperiph/source/stm32f37x_misc.c **** void NVIC_SetVectorTable(uint32_t NVIC_VectTab, uint32_t Offset)
 160:../stdperiph/source/stm32f37x_misc.c **** { 
 142              		.loc 1 160 0
 143              		.cfi_startproc
 144              		@ args = 0, pretend = 0, frame = 0
 145              		@ frame_needed = 0, uses_anonymous_args = 0
 146              		@ link register save eliminated.
 147              	.LVL14:
 161:../stdperiph/source/stm32f37x_misc.c ****   /* Check the parameters */
 162:../stdperiph/source/stm32f37x_misc.c ****   assert_param(IS_NVIC_VECTTAB(NVIC_VectTab));
 163:../stdperiph/source/stm32f37x_misc.c ****   assert_param(IS_NVIC_OFFSET(Offset));  
 164:../stdperiph/source/stm32f37x_misc.c ****    
 165:../stdperiph/source/stm32f37x_misc.c ****   SCB->VTOR = NVIC_VectTab | (Offset & (uint32_t)0x1FFFFF80);
 148              		.loc 1 165 0
 149 0000 21F06041 		bic	r1, r1, #-536870912
 150              	.LVL15:
 151 0004 21F07F01 		bic	r1, r1, #127
 152 0008 0843     		orrs	r0, r0, r1
 153              	.LVL16:
 154 000a 014B     		ldr	r3, .L10
 155 000c 9860     		str	r0, [r3, #8]
 156 000e 7047     		bx	lr
 157              	.L11:
 158              		.align	2
 159              	.L10:
 160 0010 00ED00E0 		.word	-536810240
 161              		.cfi_endproc
 162              	.LFE113:
 164              		.section	.text.NVIC_SystemLPConfig,"ax",%progbits
 165              		.align	2
 166              		.global	NVIC_SystemLPConfig
 167              		.thumb
 168              		.thumb_func
 170              	NVIC_SystemLPConfig:
 171              	.LFB114:
 166:../stdperiph/source/stm32f37x_misc.c **** }
 167:../stdperiph/source/stm32f37x_misc.c **** 
 168:../stdperiph/source/stm32f37x_misc.c **** /**
 169:../stdperiph/source/stm32f37x_misc.c ****   * @brief  Selects the condition for the system to enter low power mode.
 170:../stdperiph/source/stm32f37x_misc.c ****   * @param  LowPowerMode: Specifies the new mode for the system to enter low power mode.
 171:../stdperiph/source/stm32f37x_misc.c ****   *          This parameter can be one of the following values:
 172:../stdperiph/source/stm32f37x_misc.c ****   *            @arg NVIC_LP_SEVONPEND: Low Power SEV on Pend.
 173:../stdperiph/source/stm32f37x_misc.c ****   *            @arg NVIC_LP_SLEEPDEEP: Low Power DEEPSLEEP request.
 174:../stdperiph/source/stm32f37x_misc.c ****   *            @arg NVIC_LP_SLEEPONEXIT: Low Power Sleep on Exit.
 175:../stdperiph/source/stm32f37x_misc.c ****   * @param  NewState: new state of LP condition. This parameter can be: ENABLE or DISABLE.
 176:../stdperiph/source/stm32f37x_misc.c ****   * @retval None
ARM GAS  C:\Users\strag\AppData\Local\Temp\ccmedD7n.s 			page 7


 177:../stdperiph/source/stm32f37x_misc.c ****   */
 178:../stdperiph/source/stm32f37x_misc.c **** void NVIC_SystemLPConfig(uint8_t LowPowerMode, FunctionalState NewState)
 179:../stdperiph/source/stm32f37x_misc.c **** {
 172              		.loc 1 179 0
 173              		.cfi_startproc
 174              		@ args = 0, pretend = 0, frame = 0
 175              		@ frame_needed = 0, uses_anonymous_args = 0
 176              		@ link register save eliminated.
 177              	.LVL17:
 180:../stdperiph/source/stm32f37x_misc.c ****   /* Check the parameters */
 181:../stdperiph/source/stm32f37x_misc.c ****   assert_param(IS_NVIC_LP(LowPowerMode));
 182:../stdperiph/source/stm32f37x_misc.c ****   assert_param(IS_FUNCTIONAL_STATE(NewState));  
 183:../stdperiph/source/stm32f37x_misc.c ****   
 184:../stdperiph/source/stm32f37x_misc.c ****   if (NewState != DISABLE)
 178              		.loc 1 184 0
 179 0000 21B1     		cbz	r1, .L13
 185:../stdperiph/source/stm32f37x_misc.c ****   {
 186:../stdperiph/source/stm32f37x_misc.c ****     SCB->SCR |= LowPowerMode;
 180              		.loc 1 186 0
 181 0002 054A     		ldr	r2, .L15
 182 0004 1369     		ldr	r3, [r2, #16]
 183 0006 1843     		orrs	r0, r0, r3
 184              	.LVL18:
 185 0008 1061     		str	r0, [r2, #16]
 186 000a 7047     		bx	lr
 187              	.LVL19:
 188              	.L13:
 187:../stdperiph/source/stm32f37x_misc.c ****   }
 188:../stdperiph/source/stm32f37x_misc.c ****   else
 189:../stdperiph/source/stm32f37x_misc.c ****   {
 190:../stdperiph/source/stm32f37x_misc.c ****     SCB->SCR &= (uint32_t)(~(uint32_t)LowPowerMode);
 189              		.loc 1 190 0
 190 000c 024A     		ldr	r2, .L15
 191 000e 1369     		ldr	r3, [r2, #16]
 192 0010 23EA0000 		bic	r0, r3, r0
 193              	.LVL20:
 194 0014 1061     		str	r0, [r2, #16]
 195 0016 7047     		bx	lr
 196              	.L16:
 197              		.align	2
 198              	.L15:
 199 0018 00ED00E0 		.word	-536810240
 200              		.cfi_endproc
 201              	.LFE114:
 203              		.section	.text.SysTick_CLKSourceConfig,"ax",%progbits
 204              		.align	2
 205              		.global	SysTick_CLKSourceConfig
 206              		.thumb
 207              		.thumb_func
 209              	SysTick_CLKSourceConfig:
 210              	.LFB115:
 191:../stdperiph/source/stm32f37x_misc.c ****   }
 192:../stdperiph/source/stm32f37x_misc.c **** }
 193:../stdperiph/source/stm32f37x_misc.c **** 
 194:../stdperiph/source/stm32f37x_misc.c **** /**
 195:../stdperiph/source/stm32f37x_misc.c ****   * @brief  Configures the SysTick clock source.
 196:../stdperiph/source/stm32f37x_misc.c ****   * @param  SysTick_CLKSource: specifies the SysTick clock source.
ARM GAS  C:\Users\strag\AppData\Local\Temp\ccmedD7n.s 			page 8


 197:../stdperiph/source/stm32f37x_misc.c ****   *          This parameter can be one of the following values:
 198:../stdperiph/source/stm32f37x_misc.c ****   *            @arg SysTick_CLKSource_HCLK_Div8: AHB clock divided by 8 selected as SysTick clock s
 199:../stdperiph/source/stm32f37x_misc.c ****   *            @arg SysTick_CLKSource_HCLK: AHB clock selected as SysTick clock source.
 200:../stdperiph/source/stm32f37x_misc.c ****   * @retval None
 201:../stdperiph/source/stm32f37x_misc.c ****   */
 202:../stdperiph/source/stm32f37x_misc.c **** void SysTick_CLKSourceConfig(uint32_t SysTick_CLKSource)
 203:../stdperiph/source/stm32f37x_misc.c **** {
 211              		.loc 1 203 0
 212              		.cfi_startproc
 213              		@ args = 0, pretend = 0, frame = 0
 214              		@ frame_needed = 0, uses_anonymous_args = 0
 215              		@ link register save eliminated.
 216              	.LVL21:
 204:../stdperiph/source/stm32f37x_misc.c ****   /* Check the parameters */
 205:../stdperiph/source/stm32f37x_misc.c ****   assert_param(IS_SYSTICK_CLK_SOURCE(SysTick_CLKSource));
 206:../stdperiph/source/stm32f37x_misc.c ****   if (SysTick_CLKSource == SysTick_CLKSource_HCLK)
 217              		.loc 1 206 0
 218 0000 0428     		cmp	r0, #4
 219 0002 05D1     		bne	.L18
 207:../stdperiph/source/stm32f37x_misc.c ****   {
 208:../stdperiph/source/stm32f37x_misc.c ****     SysTick->CTRL |= SysTick_CLKSource_HCLK;
 220              		.loc 1 208 0
 221 0004 054A     		ldr	r2, .L20
 222 0006 1368     		ldr	r3, [r2]
 223 0008 43F00403 		orr	r3, r3, #4
 224 000c 1360     		str	r3, [r2]
 225 000e 7047     		bx	lr
 226              	.L18:
 209:../stdperiph/source/stm32f37x_misc.c ****   }
 210:../stdperiph/source/stm32f37x_misc.c ****   else
 211:../stdperiph/source/stm32f37x_misc.c ****   {
 212:../stdperiph/source/stm32f37x_misc.c ****     SysTick->CTRL &= SysTick_CLKSource_HCLK_Div8;
 227              		.loc 1 212 0
 228 0010 024A     		ldr	r2, .L20
 229 0012 1368     		ldr	r3, [r2]
 230 0014 23F00403 		bic	r3, r3, #4
 231 0018 1360     		str	r3, [r2]
 232 001a 7047     		bx	lr
 233              	.L21:
 234              		.align	2
 235              	.L20:
 236 001c 10E000E0 		.word	-536813552
 237              		.cfi_endproc
 238              	.LFE115:
 240              		.text
 241              	.Letext0:
 242              		.file 2 "d:\\gcc-arm-none-eabi-5_4-2016q3-20160926-win32\\arm-none-eabi\\include\\machine\\_defaul
 243              		.file 3 "d:\\gcc-arm-none-eabi-5_4-2016q3-20160926-win32\\arm-none-eabi\\include\\sys\\_stdint.h"
 244              		.file 4 "../cmsis/include/core_cm4.h"
 245              		.file 5 "../cmsis/include/stm32f37x.h"
 246              		.file 6 "../stdperiph/include/stm32f37x_misc.h"
ARM GAS  C:\Users\strag\AppData\Local\Temp\ccmedD7n.s 			page 9

